
DDtesting.elf:     file format elf32-avr

Sections:
Idx Name          Size      VMA       LMA       File off  Algn
  0 .data         00000000  00800100  00800100  00000d76  2**0
                  CONTENTS, ALLOC, LOAD, DATA
  1 .text         00000d02  00000000  00000000  00000074  2**1
                  CONTENTS, ALLOC, LOAD, READONLY, CODE
  2 .bss          00000010  00800100  00800100  00000d76  2**0
                  ALLOC
  3 .comment      00000030  00000000  00000000  00000d76  2**0
                  CONTENTS, READONLY
  4 .note.gnu.avr.deviceinfo 00000040  00000000  00000000  00000da8  2**2
                  CONTENTS, READONLY
  5 .debug_aranges 00000108  00000000  00000000  00000de8  2**0
                  CONTENTS, READONLY, DEBUGGING
  6 .debug_info   000010c2  00000000  00000000  00000ef0  2**0
                  CONTENTS, READONLY, DEBUGGING
  7 .debug_abbrev 0000032d  00000000  00000000  00001fb2  2**0
                  CONTENTS, READONLY, DEBUGGING
  8 .debug_line   00000972  00000000  00000000  000022df  2**0
                  CONTENTS, READONLY, DEBUGGING
  9 .debug_frame  000003c8  00000000  00000000  00002c54  2**2
                  CONTENTS, READONLY, DEBUGGING
 10 .debug_str    000003a1  00000000  00000000  0000301c  2**0
                  CONTENTS, READONLY, DEBUGGING
 11 .debug_loc    0000132f  00000000  00000000  000033bd  2**0
                  CONTENTS, READONLY, DEBUGGING
 12 .debug_ranges 000000f8  00000000  00000000  000046ec  2**0
                  CONTENTS, READONLY, DEBUGGING

Disassembly of section .text:

00000000 <__vectors>:
   0:	0c 94 34 00 	jmp	0x68	; 0x68 <__ctors_end>
   4:	0c 94 46 00 	jmp	0x8c	; 0x8c <__bad_interrupt>
   8:	0c 94 46 00 	jmp	0x8c	; 0x8c <__bad_interrupt>
   c:	0c 94 46 00 	jmp	0x8c	; 0x8c <__bad_interrupt>
  10:	0c 94 46 00 	jmp	0x8c	; 0x8c <__bad_interrupt>
  14:	0c 94 46 00 	jmp	0x8c	; 0x8c <__bad_interrupt>
  18:	0c 94 46 00 	jmp	0x8c	; 0x8c <__bad_interrupt>
  1c:	0c 94 46 00 	jmp	0x8c	; 0x8c <__bad_interrupt>
  20:	0c 94 46 00 	jmp	0x8c	; 0x8c <__bad_interrupt>
  24:	0c 94 46 00 	jmp	0x8c	; 0x8c <__bad_interrupt>
  28:	0c 94 46 00 	jmp	0x8c	; 0x8c <__bad_interrupt>
  2c:	0c 94 46 00 	jmp	0x8c	; 0x8c <__bad_interrupt>
  30:	0c 94 46 00 	jmp	0x8c	; 0x8c <__bad_interrupt>
  34:	0c 94 46 00 	jmp	0x8c	; 0x8c <__bad_interrupt>
  38:	0c 94 46 00 	jmp	0x8c	; 0x8c <__bad_interrupt>
  3c:	0c 94 46 00 	jmp	0x8c	; 0x8c <__bad_interrupt>
  40:	0c 94 46 00 	jmp	0x8c	; 0x8c <__bad_interrupt>
  44:	0c 94 46 00 	jmp	0x8c	; 0x8c <__bad_interrupt>
  48:	0c 94 46 00 	jmp	0x8c	; 0x8c <__bad_interrupt>
  4c:	0c 94 46 00 	jmp	0x8c	; 0x8c <__bad_interrupt>
  50:	0c 94 46 00 	jmp	0x8c	; 0x8c <__bad_interrupt>
  54:	0c 94 46 00 	jmp	0x8c	; 0x8c <__bad_interrupt>
  58:	0c 94 46 00 	jmp	0x8c	; 0x8c <__bad_interrupt>
  5c:	0c 94 46 00 	jmp	0x8c	; 0x8c <__bad_interrupt>
  60:	0c 94 46 00 	jmp	0x8c	; 0x8c <__bad_interrupt>
  64:	0c 94 46 00 	jmp	0x8c	; 0x8c <__bad_interrupt>

00000068 <__ctors_end>:
  68:	11 24       	eor	r1, r1
  6a:	1f be       	out	0x3f, r1	; 63
  6c:	cf ef       	ldi	r28, 0xFF	; 255
  6e:	d8 e0       	ldi	r29, 0x08	; 8
  70:	de bf       	out	0x3e, r29	; 62
  72:	cd bf       	out	0x3d, r28	; 61

00000074 <__do_clear_bss>:
  74:	21 e0       	ldi	r18, 0x01	; 1
  76:	a0 e0       	ldi	r26, 0x00	; 0
  78:	b1 e0       	ldi	r27, 0x01	; 1
  7a:	01 c0       	rjmp	.+2      	; 0x7e <.do_clear_bss_start>

0000007c <.do_clear_bss_loop>:
  7c:	1d 92       	st	X+, r1

0000007e <.do_clear_bss_start>:
  7e:	a0 31       	cpi	r26, 0x10	; 16
  80:	b2 07       	cpc	r27, r18
  82:	e1 f7       	brne	.-8      	; 0x7c <.do_clear_bss_loop>
  84:	0e 94 83 04 	call	0x906	; 0x906 <main>
  88:	0c 94 7f 06 	jmp	0xcfe	; 0xcfe <_exit>

0000008c <__bad_interrupt>:
  8c:	0c 94 00 00 	jmp	0	; 0x0 <__vectors>

00000090 <i2c_init>:

/*
 * set sleep enabled
 */
void mpu6050_setSleepEnabled() {
	mpu6050_writeBit(MPU6050_RA_PWR_MGMT_1, MPU6050_PWR1_SLEEP_BIT, 1);
  90:	10 92 b9 00 	sts	0x00B9, r1
  94:	88 e4       	ldi	r24, 0x48	; 72
  96:	80 93 b8 00 	sts	0x00B8, r24
  9a:	08 95       	ret

0000009c <i2c_start>:
  9c:	94 ea       	ldi	r25, 0xA4	; 164
  9e:	90 93 bc 00 	sts	0x00BC, r25
  a2:	4f ef       	ldi	r20, 0xFF	; 255
  a4:	50 e0       	ldi	r21, 0x00	; 0
  a6:	60 e0       	ldi	r22, 0x00	; 0
  a8:	70 e0       	ldi	r23, 0x00	; 0
  aa:	ec eb       	ldi	r30, 0xBC	; 188
  ac:	f0 e0       	ldi	r31, 0x00	; 0
  ae:	90 81       	ld	r25, Z
  b0:	99 23       	and	r25, r25
  b2:	34 f0       	brlt	.+12     	; 0xc0 <i2c_start+0x24>
  b4:	41 50       	subi	r20, 0x01	; 1
  b6:	51 09       	sbc	r21, r1
  b8:	61 09       	sbc	r22, r1
  ba:	71 09       	sbc	r23, r1
  bc:	c0 f7       	brcc	.-16     	; 0xae <i2c_start+0x12>
  be:	04 c0       	rjmp	.+8      	; 0xc8 <i2c_start+0x2c>
  c0:	45 2b       	or	r20, r21
  c2:	46 2b       	or	r20, r22
  c4:	47 2b       	or	r20, r23
  c6:	41 f1       	breq	.+80     	; 0x118 <i2c_start+0x7c>
  c8:	90 91 b9 00 	lds	r25, 0x00B9
  cc:	98 7f       	andi	r25, 0xF8	; 248
  ce:	98 30       	cpi	r25, 0x08	; 8
  d0:	11 f0       	breq	.+4      	; 0xd6 <i2c_start+0x3a>
  d2:	90 31       	cpi	r25, 0x10	; 16
  d4:	19 f5       	brne	.+70     	; 0x11c <i2c_start+0x80>
  d6:	80 93 bb 00 	sts	0x00BB, r24
  da:	84 e8       	ldi	r24, 0x84	; 132
  dc:	80 93 bc 00 	sts	0x00BC, r24
  e0:	8f ef       	ldi	r24, 0xFF	; 255
  e2:	90 e0       	ldi	r25, 0x00	; 0
  e4:	a0 e0       	ldi	r26, 0x00	; 0
  e6:	b0 e0       	ldi	r27, 0x00	; 0
  e8:	ec eb       	ldi	r30, 0xBC	; 188
  ea:	f0 e0       	ldi	r31, 0x00	; 0
  ec:	20 81       	ld	r18, Z
  ee:	22 23       	and	r18, r18
  f0:	2c f0       	brlt	.+10     	; 0xfc <i2c_start+0x60>
  f2:	01 97       	sbiw	r24, 0x01	; 1
  f4:	a1 09       	sbc	r26, r1
  f6:	b1 09       	sbc	r27, r1
  f8:	c8 f7       	brcc	.-14     	; 0xec <i2c_start+0x50>
  fa:	04 c0       	rjmp	.+8      	; 0x104 <i2c_start+0x68>
  fc:	89 2b       	or	r24, r25
  fe:	8a 2b       	or	r24, r26
 100:	8b 2b       	or	r24, r27
 102:	71 f0       	breq	.+28     	; 0x120 <i2c_start+0x84>
 104:	90 91 b9 00 	lds	r25, 0x00B9
 108:	98 7f       	andi	r25, 0xF8	; 248
 10a:	98 31       	cpi	r25, 0x18	; 24
 10c:	59 f0       	breq	.+22     	; 0x124 <i2c_start+0x88>
 10e:	81 e0       	ldi	r24, 0x01	; 1
 110:	90 34       	cpi	r25, 0x40	; 64
 112:	49 f4       	brne	.+18     	; 0x126 <i2c_start+0x8a>
 114:	80 e0       	ldi	r24, 0x00	; 0
 116:	08 95       	ret
 118:	81 e0       	ldi	r24, 0x01	; 1
 11a:	08 95       	ret
 11c:	81 e0       	ldi	r24, 0x01	; 1
 11e:	08 95       	ret
 120:	81 e0       	ldi	r24, 0x01	; 1
 122:	08 95       	ret
 124:	80 e0       	ldi	r24, 0x00	; 0
 126:	08 95       	ret

00000128 <i2c_stop>:
 128:	84 e9       	ldi	r24, 0x94	; 148
 12a:	80 93 bc 00 	sts	0x00BC, r24
 12e:	80 e0       	ldi	r24, 0x00	; 0
 130:	90 e0       	ldi	r25, 0x00	; 0
 132:	ec eb       	ldi	r30, 0xBC	; 188
 134:	f0 e0       	ldi	r31, 0x00	; 0
 136:	20 81       	ld	r18, Z
 138:	24 ff       	sbrs	r18, 4
 13a:	05 c0       	rjmp	.+10     	; 0x146 <i2c_stop+0x1e>
 13c:	01 96       	adiw	r24, 0x01	; 1
 13e:	81 15       	cp	r24, r1
 140:	21 e0       	ldi	r18, 0x01	; 1
 142:	92 07       	cpc	r25, r18
 144:	c1 f7       	brne	.-16     	; 0x136 <i2c_stop+0xe>
 146:	08 95       	ret

00000148 <i2c_write>:
 148:	80 93 bb 00 	sts	0x00BB, r24
 14c:	84 e8       	ldi	r24, 0x84	; 132
 14e:	80 93 bc 00 	sts	0x00BC, r24
 152:	8f ef       	ldi	r24, 0xFF	; 255
 154:	90 e0       	ldi	r25, 0x00	; 0
 156:	a0 e0       	ldi	r26, 0x00	; 0
 158:	b0 e0       	ldi	r27, 0x00	; 0
 15a:	ec eb       	ldi	r30, 0xBC	; 188
 15c:	f0 e0       	ldi	r31, 0x00	; 0
 15e:	20 81       	ld	r18, Z
 160:	22 23       	and	r18, r18
 162:	2c f0       	brlt	.+10     	; 0x16e <i2c_write+0x26>
 164:	01 97       	sbiw	r24, 0x01	; 1
 166:	a1 09       	sbc	r26, r1
 168:	b1 09       	sbc	r27, r1
 16a:	c8 f7       	brcc	.-14     	; 0x15e <i2c_write+0x16>
 16c:	04 c0       	rjmp	.+8      	; 0x176 <i2c_write+0x2e>
 16e:	89 2b       	or	r24, r25
 170:	8a 2b       	or	r24, r26
 172:	8b 2b       	or	r24, r27
 174:	41 f0       	breq	.+16     	; 0x186 <i2c_write+0x3e>
 176:	90 91 b9 00 	lds	r25, 0x00B9
 17a:	98 7f       	andi	r25, 0xF8	; 248
 17c:	81 e0       	ldi	r24, 0x01	; 1
 17e:	98 32       	cpi	r25, 0x28	; 40
 180:	19 f4       	brne	.+6      	; 0x188 <i2c_write+0x40>
 182:	80 e0       	ldi	r24, 0x00	; 0
 184:	08 95       	ret
 186:	81 e0       	ldi	r24, 0x01	; 1
 188:	08 95       	ret

0000018a <mpu6050_writeBytes>:
 18a:	ef 92       	push	r14
 18c:	ff 92       	push	r15
 18e:	0f 93       	push	r16
 190:	1f 93       	push	r17
 192:	cf 93       	push	r28
 194:	df 93       	push	r29
 196:	66 23       	and	r22, r22
 198:	d1 f0       	breq	.+52     	; 0x1ce <mpu6050_writeBytes+0x44>
 19a:	7a 01       	movw	r14, r20
 19c:	16 2f       	mov	r17, r22
 19e:	c8 2f       	mov	r28, r24
 1a0:	80 ed       	ldi	r24, 0xD0	; 208
 1a2:	0e 94 4e 00 	call	0x9c	; 0x9c <i2c_start>
 1a6:	8c 2f       	mov	r24, r28
 1a8:	0e 94 a4 00 	call	0x148	; 0x148 <i2c_write>
 1ac:	e7 01       	movw	r28, r14
 1ae:	6f ef       	ldi	r22, 0xFF	; 255
 1b0:	61 0f       	add	r22, r17
 1b2:	06 2f       	mov	r16, r22
 1b4:	10 e0       	ldi	r17, 0x00	; 0
 1b6:	0f 5f       	subi	r16, 0xFF	; 255
 1b8:	1f 4f       	sbci	r17, 0xFF	; 255
 1ba:	0e 0d       	add	r16, r14
 1bc:	1f 1d       	adc	r17, r15
 1be:	89 91       	ld	r24, Y+
 1c0:	0e 94 a4 00 	call	0x148	; 0x148 <i2c_write>
 1c4:	c0 17       	cp	r28, r16
 1c6:	d1 07       	cpc	r29, r17
 1c8:	d1 f7       	brne	.-12     	; 0x1be <mpu6050_writeBytes+0x34>
 1ca:	0e 94 94 00 	call	0x128	; 0x128 <i2c_stop>
 1ce:	df 91       	pop	r29
 1d0:	cf 91       	pop	r28
 1d2:	1f 91       	pop	r17
 1d4:	0f 91       	pop	r16
 1d6:	ff 90       	pop	r15
 1d8:	ef 90       	pop	r14
 1da:	08 95       	ret

000001dc <mpu6050_writeByte>:
 1dc:	cf 93       	push	r28
 1de:	df 93       	push	r29
 1e0:	1f 92       	push	r1
 1e2:	cd b7       	in	r28, 0x3d	; 61
 1e4:	de b7       	in	r29, 0x3e	; 62
 1e6:	69 83       	std	Y+1, r22	; 0x01
 1e8:	ae 01       	movw	r20, r28
 1ea:	4f 5f       	subi	r20, 0xFF	; 255
 1ec:	5f 4f       	sbci	r21, 0xFF	; 255
 1ee:	61 e0       	ldi	r22, 0x01	; 1
 1f0:	0e 94 c5 00 	call	0x18a	; 0x18a <mpu6050_writeBytes>
 1f4:	0f 90       	pop	r0
 1f6:	df 91       	pop	r29
 1f8:	cf 91       	pop	r28
 1fa:	08 95       	ret

000001fc <i2c_readAck>:
 1fc:	84 ec       	ldi	r24, 0xC4	; 196
 1fe:	80 93 bc 00 	sts	0x00BC, r24
 202:	8f ef       	ldi	r24, 0xFF	; 255
 204:	90 e0       	ldi	r25, 0x00	; 0
 206:	a0 e0       	ldi	r26, 0x00	; 0
 208:	b0 e0       	ldi	r27, 0x00	; 0
 20a:	ec eb       	ldi	r30, 0xBC	; 188
 20c:	f0 e0       	ldi	r31, 0x00	; 0
 20e:	20 81       	ld	r18, Z
 210:	22 23       	and	r18, r18
 212:	2c f0       	brlt	.+10     	; 0x21e <i2c_readAck+0x22>
 214:	01 97       	sbiw	r24, 0x01	; 1
 216:	a1 09       	sbc	r26, r1
 218:	b1 09       	sbc	r27, r1
 21a:	c8 f7       	brcc	.-14     	; 0x20e <i2c_readAck+0x12>
 21c:	04 c0       	rjmp	.+8      	; 0x226 <i2c_readAck+0x2a>
 21e:	89 2b       	or	r24, r25
 220:	8a 2b       	or	r24, r26
 222:	8b 2b       	or	r24, r27
 224:	19 f0       	breq	.+6      	; 0x22c <i2c_readAck+0x30>
 226:	80 91 bb 00 	lds	r24, 0x00BB
 22a:	08 95       	ret
 22c:	80 e0       	ldi	r24, 0x00	; 0
 22e:	08 95       	ret

00000230 <i2c_readNak>:
 230:	84 e8       	ldi	r24, 0x84	; 132
 232:	80 93 bc 00 	sts	0x00BC, r24
 236:	8f ef       	ldi	r24, 0xFF	; 255
 238:	90 e0       	ldi	r25, 0x00	; 0
 23a:	a0 e0       	ldi	r26, 0x00	; 0
 23c:	b0 e0       	ldi	r27, 0x00	; 0
 23e:	ec eb       	ldi	r30, 0xBC	; 188
 240:	f0 e0       	ldi	r31, 0x00	; 0
 242:	20 81       	ld	r18, Z
 244:	22 23       	and	r18, r18
 246:	2c f0       	brlt	.+10     	; 0x252 <i2c_readNak+0x22>
 248:	01 97       	sbiw	r24, 0x01	; 1
 24a:	a1 09       	sbc	r26, r1
 24c:	b1 09       	sbc	r27, r1
 24e:	c8 f7       	brcc	.-14     	; 0x242 <i2c_readNak+0x12>
 250:	04 c0       	rjmp	.+8      	; 0x25a <i2c_readNak+0x2a>
 252:	89 2b       	or	r24, r25
 254:	8a 2b       	or	r24, r26
 256:	8b 2b       	or	r24, r27
 258:	19 f0       	breq	.+6      	; 0x260 <i2c_readNak+0x30>
 25a:	80 91 bb 00 	lds	r24, 0x00BB
 25e:	08 95       	ret
 260:	80 e0       	ldi	r24, 0x00	; 0
 262:	08 95       	ret

00000264 <mpu6050_readBytes>:
 264:	af 92       	push	r10
 266:	bf 92       	push	r11
 268:	df 92       	push	r13
 26a:	ef 92       	push	r14
 26c:	ff 92       	push	r15
 26e:	0f 93       	push	r16
 270:	1f 93       	push	r17
 272:	cf 93       	push	r28
 274:	df 93       	push	r29
 276:	66 23       	and	r22, r22
 278:	99 f1       	breq	.+102    	; 0x2e0 <mpu6050_readBytes+0x7c>
 27a:	c5 2f       	mov	r28, r21
 27c:	d4 2f       	mov	r29, r20
 27e:	d6 2e       	mov	r13, r22
 280:	18 2f       	mov	r17, r24
 282:	80 ed       	ldi	r24, 0xD0	; 208
 284:	0e 94 4e 00 	call	0x9c	; 0x9c <i2c_start>
 288:	81 2f       	mov	r24, r17
 28a:	0e 94 a4 00 	call	0x148	; 0x148 <i2c_write>
 28e:	81 ed       	ldi	r24, 0xD1	; 209
 290:	0e 94 4e 00 	call	0x9c	; 0x9c <i2c_start>
 294:	0d 2f       	mov	r16, r29
 296:	1c 2f       	mov	r17, r28
 298:	ee 24       	eor	r14, r14
 29a:	ea 94       	dec	r14
 29c:	ed 0c       	add	r14, r13
 29e:	f1 2c       	mov	r15, r1
 2a0:	8f ef       	ldi	r24, 0xFF	; 255
 2a2:	e8 1a       	sub	r14, r24
 2a4:	f8 0a       	sbc	r15, r24
 2a6:	c0 e0       	ldi	r28, 0x00	; 0
 2a8:	d0 e0       	ldi	r29, 0x00	; 0
 2aa:	ad 2c       	mov	r10, r13
 2ac:	b1 2c       	mov	r11, r1
 2ae:	e1 e0       	ldi	r30, 0x01	; 1
 2b0:	ae 1a       	sub	r10, r30
 2b2:	b1 08       	sbc	r11, r1
 2b4:	ca 15       	cp	r28, r10
 2b6:	db 05       	cpc	r29, r11
 2b8:	29 f4       	brne	.+10     	; 0x2c4 <mpu6050_readBytes+0x60>
 2ba:	0e 94 18 01 	call	0x230	; 0x230 <i2c_readNak>
 2be:	f8 01       	movw	r30, r16
 2c0:	80 83       	st	Z, r24
 2c2:	04 c0       	rjmp	.+8      	; 0x2cc <mpu6050_readBytes+0x68>
 2c4:	0e 94 fe 00 	call	0x1fc	; 0x1fc <i2c_readAck>
 2c8:	f8 01       	movw	r30, r16
 2ca:	80 83       	st	Z, r24
 2cc:	21 96       	adiw	r28, 0x01	; 1
 2ce:	0f 5f       	subi	r16, 0xFF	; 255
 2d0:	1f 4f       	sbci	r17, 0xFF	; 255
 2d2:	ce 15       	cp	r28, r14
 2d4:	df 05       	cpc	r29, r15
 2d6:	71 f7       	brne	.-36     	; 0x2b4 <mpu6050_readBytes+0x50>
 2d8:	cd 2d       	mov	r28, r13
 2da:	0e 94 94 00 	call	0x128	; 0x128 <i2c_stop>
 2de:	01 c0       	rjmp	.+2      	; 0x2e2 <mpu6050_readBytes+0x7e>
 2e0:	c0 e0       	ldi	r28, 0x00	; 0
 2e2:	8c 2f       	mov	r24, r28
 2e4:	df 91       	pop	r29
 2e6:	cf 91       	pop	r28
 2e8:	1f 91       	pop	r17
 2ea:	0f 91       	pop	r16
 2ec:	ff 90       	pop	r15
 2ee:	ef 90       	pop	r14
 2f0:	df 90       	pop	r13
 2f2:	bf 90       	pop	r11
 2f4:	af 90       	pop	r10
 2f6:	08 95       	ret

000002f8 <mpu6050_readByte>:
 2f8:	ab 01       	movw	r20, r22
 2fa:	61 e0       	ldi	r22, 0x01	; 1
 2fc:	0e 94 32 01 	call	0x264	; 0x264 <mpu6050_readBytes>
 300:	08 95       	ret

00000302 <mpu6050_writeBits>:
 302:	ef 92       	push	r14
 304:	ff 92       	push	r15
 306:	0f 93       	push	r16
 308:	1f 93       	push	r17
 30a:	cf 93       	push	r28
 30c:	df 93       	push	r29
 30e:	1f 92       	push	r1
 310:	cd b7       	in	r28, 0x3d	; 61
 312:	de b7       	in	r29, 0x3e	; 62
 314:	44 23       	and	r20, r20
 316:	89 f1       	breq	.+98     	; 0x37a <mpu6050_writeBits+0x78>
 318:	f2 2e       	mov	r15, r18
 31a:	14 2f       	mov	r17, r20
 31c:	06 2f       	mov	r16, r22
 31e:	e8 2e       	mov	r14, r24
 320:	19 82       	std	Y+1, r1	; 0x01
 322:	be 01       	movw	r22, r28
 324:	6f 5f       	subi	r22, 0xFF	; 255
 326:	7f 4f       	sbci	r23, 0xFF	; 255
 328:	0e 94 7c 01 	call	0x2f8	; 0x2f8 <mpu6050_readByte>
 32c:	88 23       	and	r24, r24
 32e:	29 f1       	breq	.+74     	; 0x37a <mpu6050_writeBits+0x78>
 330:	40 2f       	mov	r20, r16
 332:	50 e0       	ldi	r21, 0x00	; 0
 334:	41 1b       	sub	r20, r17
 336:	51 09       	sbc	r21, r1
 338:	4f 5f       	subi	r20, 0xFF	; 255
 33a:	5f 4f       	sbci	r21, 0xFF	; 255
 33c:	81 e0       	ldi	r24, 0x01	; 1
 33e:	90 e0       	ldi	r25, 0x00	; 0
 340:	02 c0       	rjmp	.+4      	; 0x346 <mpu6050_writeBits+0x44>
 342:	88 0f       	add	r24, r24
 344:	99 1f       	adc	r25, r25
 346:	1a 95       	dec	r17
 348:	e2 f7       	brpl	.-8      	; 0x342 <mpu6050_writeBits+0x40>
 34a:	01 97       	sbiw	r24, 0x01	; 1
 34c:	04 2e       	mov	r0, r20
 34e:	02 c0       	rjmp	.+4      	; 0x354 <mpu6050_writeBits+0x52>
 350:	88 0f       	add	r24, r24
 352:	99 1f       	adc	r25, r25
 354:	0a 94       	dec	r0
 356:	e2 f7       	brpl	.-8      	; 0x350 <mpu6050_writeBits+0x4e>
 358:	2f 2d       	mov	r18, r15
 35a:	30 e0       	ldi	r19, 0x00	; 0
 35c:	02 c0       	rjmp	.+4      	; 0x362 <mpu6050_writeBits+0x60>
 35e:	22 0f       	add	r18, r18
 360:	33 1f       	adc	r19, r19
 362:	4a 95       	dec	r20
 364:	e2 f7       	brpl	.-8      	; 0x35e <mpu6050_writeBits+0x5c>
 366:	68 2f       	mov	r22, r24
 368:	60 95       	com	r22
 36a:	99 81       	ldd	r25, Y+1	; 0x01
 36c:	69 23       	and	r22, r25
 36e:	82 23       	and	r24, r18
 370:	68 2b       	or	r22, r24
 372:	69 83       	std	Y+1, r22	; 0x01
 374:	8e 2d       	mov	r24, r14
 376:	0e 94 ee 00 	call	0x1dc	; 0x1dc <mpu6050_writeByte>
 37a:	0f 90       	pop	r0
 37c:	df 91       	pop	r29
 37e:	cf 91       	pop	r28
 380:	1f 91       	pop	r17
 382:	0f 91       	pop	r16
 384:	ff 90       	pop	r15
 386:	ef 90       	pop	r14
 388:	08 95       	ret

0000038a <mpu6050_writeBit>:
 38a:	ff 92       	push	r15
 38c:	0f 93       	push	r16
 38e:	1f 93       	push	r17
 390:	cf 93       	push	r28
 392:	df 93       	push	r29
 394:	1f 92       	push	r1
 396:	cd b7       	in	r28, 0x3d	; 61
 398:	de b7       	in	r29, 0x3e	; 62
 39a:	18 2f       	mov	r17, r24
 39c:	06 2f       	mov	r16, r22
 39e:	f4 2e       	mov	r15, r20
 3a0:	be 01       	movw	r22, r28
 3a2:	6f 5f       	subi	r22, 0xFF	; 255
 3a4:	7f 4f       	sbci	r23, 0xFF	; 255
 3a6:	0e 94 7c 01 	call	0x2f8	; 0x2f8 <mpu6050_readByte>
 3aa:	ff 20       	and	r15, r15
 3ac:	59 f0       	breq	.+22     	; 0x3c4 <mpu6050_writeBit+0x3a>
 3ae:	21 e0       	ldi	r18, 0x01	; 1
 3b0:	30 e0       	ldi	r19, 0x00	; 0
 3b2:	b9 01       	movw	r22, r18
 3b4:	02 c0       	rjmp	.+4      	; 0x3ba <mpu6050_writeBit+0x30>
 3b6:	66 0f       	add	r22, r22
 3b8:	77 1f       	adc	r23, r23
 3ba:	0a 95       	dec	r16
 3bc:	e2 f7       	brpl	.-8      	; 0x3b6 <mpu6050_writeBit+0x2c>
 3be:	89 81       	ldd	r24, Y+1	; 0x01
 3c0:	68 2b       	or	r22, r24
 3c2:	0b c0       	rjmp	.+22     	; 0x3da <mpu6050_writeBit+0x50>
 3c4:	21 e0       	ldi	r18, 0x01	; 1
 3c6:	30 e0       	ldi	r19, 0x00	; 0
 3c8:	b9 01       	movw	r22, r18
 3ca:	02 c0       	rjmp	.+4      	; 0x3d0 <mpu6050_writeBit+0x46>
 3cc:	66 0f       	add	r22, r22
 3ce:	77 1f       	adc	r23, r23
 3d0:	0a 95       	dec	r16
 3d2:	e2 f7       	brpl	.-8      	; 0x3cc <mpu6050_writeBit+0x42>
 3d4:	60 95       	com	r22
 3d6:	99 81       	ldd	r25, Y+1	; 0x01
 3d8:	69 23       	and	r22, r25
 3da:	69 83       	std	Y+1, r22	; 0x01
 3dc:	81 2f       	mov	r24, r17
 3de:	0e 94 ee 00 	call	0x1dc	; 0x1dc <mpu6050_writeByte>
 3e2:	0f 90       	pop	r0
 3e4:	df 91       	pop	r29
 3e6:	cf 91       	pop	r28
 3e8:	1f 91       	pop	r17
 3ea:	0f 91       	pop	r16
 3ec:	ff 90       	pop	r15
 3ee:	08 95       	ret

000003f0 <mpu6050_setSleepDisabled>:
 3f0:	40 e0       	ldi	r20, 0x00	; 0
 3f2:	66 e0       	ldi	r22, 0x06	; 6
 3f4:	8b e6       	ldi	r24, 0x6B	; 107
 3f6:	0e 94 c5 01 	call	0x38a	; 0x38a <mpu6050_writeBit>
 3fa:	08 95       	ret

000003fc <mpu6050_init>:
 3fc:	0e 94 48 00 	call	0x90	; 0x90 <i2c_init>
 400:	0e 94 f8 01 	call	0x3f0	; 0x3f0 <mpu6050_setSleepDisabled>
 404:	21 e0       	ldi	r18, 0x01	; 1
 406:	43 e0       	ldi	r20, 0x03	; 3
 408:	62 e0       	ldi	r22, 0x02	; 2
 40a:	8b e6       	ldi	r24, 0x6B	; 107
 40c:	0e 94 81 01 	call	0x302	; 0x302 <mpu6050_writeBits>
 410:	23 e0       	ldi	r18, 0x03	; 3
 412:	43 e0       	ldi	r20, 0x03	; 3
 414:	62 e0       	ldi	r22, 0x02	; 2
 416:	8a e1       	ldi	r24, 0x1A	; 26
 418:	0e 94 81 01 	call	0x302	; 0x302 <mpu6050_writeBits>
 41c:	64 e0       	ldi	r22, 0x04	; 4
 41e:	89 e1       	ldi	r24, 0x19	; 25
 420:	0e 94 ee 00 	call	0x1dc	; 0x1dc <mpu6050_writeByte>
 424:	23 e0       	ldi	r18, 0x03	; 3
 426:	42 e0       	ldi	r20, 0x02	; 2
 428:	64 e0       	ldi	r22, 0x04	; 4
 42a:	8b e1       	ldi	r24, 0x1B	; 27
 42c:	0e 94 81 01 	call	0x302	; 0x302 <mpu6050_writeBits>
 430:	20 e0       	ldi	r18, 0x00	; 0
 432:	42 e0       	ldi	r20, 0x02	; 2
 434:	64 e0       	ldi	r22, 0x04	; 4
 436:	8c e1       	ldi	r24, 0x1C	; 28
 438:	0e 94 81 01 	call	0x302	; 0x302 <mpu6050_writeBits>
 43c:	08 95       	ret

0000043e <mpu6050_getRawData>:

//can not accept many request if we alreay have getattitude requests
/*
 * get raw data
 */
void mpu6050_getRawData(int16_t* ax, int16_t* ay, int16_t* az, int16_t* gx, int16_t* gy, int16_t* gz) {
 43e:	8f 92       	push	r8
 440:	9f 92       	push	r9
 442:	af 92       	push	r10
 444:	bf 92       	push	r11
 446:	cf 92       	push	r12
 448:	df 92       	push	r13
 44a:	ef 92       	push	r14
 44c:	ff 92       	push	r15
 44e:	0f 93       	push	r16
 450:	1f 93       	push	r17
 452:	cf 93       	push	r28
 454:	df 93       	push	r29
 456:	4c 01       	movw	r8, r24
 458:	5b 01       	movw	r10, r22
 45a:	6a 01       	movw	r12, r20
 45c:	e9 01       	movw	r28, r18
	mpu6050_readBytes(MPU6050_RA_ACCEL_XOUT_H, 14, (uint8_t *)buffer);
 45e:	42 e0       	ldi	r20, 0x02	; 2
 460:	51 e0       	ldi	r21, 0x01	; 1
 462:	6e e0       	ldi	r22, 0x0E	; 14
 464:	8b e3       	ldi	r24, 0x3B	; 59
 466:	0e 94 32 01 	call	0x264	; 0x264 <mpu6050_readBytes>

    *ax = (((int16_t)buffer[0]) << 8) | buffer[1];
 46a:	e2 e0       	ldi	r30, 0x02	; 2
 46c:	f1 e0       	ldi	r31, 0x01	; 1
 46e:	20 81       	ld	r18, Z
 470:	81 81       	ldd	r24, Z+1	; 0x01
 472:	90 e0       	ldi	r25, 0x00	; 0
 474:	92 2b       	or	r25, r18
 476:	d4 01       	movw	r26, r8
 478:	8d 93       	st	X+, r24
 47a:	9c 93       	st	X, r25
    *ay = (((int16_t)buffer[2]) << 8) | buffer[3];
 47c:	22 81       	ldd	r18, Z+2	; 0x02
 47e:	83 81       	ldd	r24, Z+3	; 0x03
 480:	90 e0       	ldi	r25, 0x00	; 0
 482:	92 2b       	or	r25, r18
 484:	d5 01       	movw	r26, r10
 486:	8d 93       	st	X+, r24
 488:	9c 93       	st	X, r25
    *az = (((int16_t)buffer[4]) << 8) | buffer[5];
 48a:	24 81       	ldd	r18, Z+4	; 0x04
 48c:	85 81       	ldd	r24, Z+5	; 0x05
 48e:	90 e0       	ldi	r25, 0x00	; 0
 490:	92 2b       	or	r25, r18
 492:	d6 01       	movw	r26, r12
 494:	8d 93       	st	X+, r24
 496:	9c 93       	st	X, r25
    *gx = (((int16_t)buffer[8]) << 8) | buffer[9];
 498:	20 85       	ldd	r18, Z+8	; 0x08
 49a:	81 85       	ldd	r24, Z+9	; 0x09
 49c:	90 e0       	ldi	r25, 0x00	; 0
 49e:	92 2b       	or	r25, r18
 4a0:	99 83       	std	Y+1, r25	; 0x01
 4a2:	88 83       	st	Y, r24
    *gy = (((int16_t)buffer[10]) << 8) | buffer[11];
 4a4:	22 85       	ldd	r18, Z+10	; 0x0a
 4a6:	83 85       	ldd	r24, Z+11	; 0x0b
 4a8:	90 e0       	ldi	r25, 0x00	; 0
 4aa:	92 2b       	or	r25, r18
 4ac:	d8 01       	movw	r26, r16
 4ae:	8d 93       	st	X+, r24
 4b0:	9c 93       	st	X, r25
    *gz = (((int16_t)buffer[12]) << 8) | buffer[13];
 4b2:	24 85       	ldd	r18, Z+12	; 0x0c
 4b4:	85 85       	ldd	r24, Z+13	; 0x0d
 4b6:	90 e0       	ldi	r25, 0x00	; 0
 4b8:	92 2b       	or	r25, r18
 4ba:	f7 01       	movw	r30, r14
 4bc:	91 83       	std	Z+1, r25	; 0x01
 4be:	80 83       	st	Z, r24
}
 4c0:	df 91       	pop	r29
 4c2:	cf 91       	pop	r28
 4c4:	1f 91       	pop	r17
 4c6:	0f 91       	pop	r16
 4c8:	ff 90       	pop	r15
 4ca:	ef 90       	pop	r14
 4cc:	df 90       	pop	r13
 4ce:	cf 90       	pop	r12
 4d0:	bf 90       	pop	r11
 4d2:	af 90       	pop	r10
 4d4:	9f 90       	pop	r9
 4d6:	8f 90       	pop	r8
 4d8:	08 95       	ret

000004da <mpu6050_getConvData>:

/*
 * get raw data converted to g and deg/sec values
 */
void mpu6050_getConvData(double* axg, double* ayg, double* azg, double* gxds, double* gyds, double* gzds) {
 4da:	2f 92       	push	r2
 4dc:	3f 92       	push	r3
 4de:	4f 92       	push	r4
 4e0:	5f 92       	push	r5
 4e2:	6f 92       	push	r6
 4e4:	7f 92       	push	r7
 4e6:	8f 92       	push	r8
 4e8:	9f 92       	push	r9
 4ea:	af 92       	push	r10
 4ec:	bf 92       	push	r11
 4ee:	cf 92       	push	r12
 4f0:	df 92       	push	r13
 4f2:	ef 92       	push	r14
 4f4:	ff 92       	push	r15
 4f6:	0f 93       	push	r16
 4f8:	1f 93       	push	r17
 4fa:	cf 93       	push	r28
 4fc:	df 93       	push	r29
 4fe:	cd b7       	in	r28, 0x3d	; 61
 500:	de b7       	in	r29, 0x3e	; 62
 502:	2c 97       	sbiw	r28, 0x0c	; 12
 504:	0f b6       	in	r0, 0x3f	; 63
 506:	f8 94       	cli
 508:	de bf       	out	0x3e, r29	; 62
 50a:	0f be       	out	0x3f, r0	; 63
 50c:	cd bf       	out	0x3d, r28	; 61
 50e:	3c 01       	movw	r6, r24
 510:	4b 01       	movw	r8, r22
 512:	5a 01       	movw	r10, r20
 514:	69 01       	movw	r12, r18
 516:	28 01       	movw	r4, r16
 518:	17 01       	movw	r2, r14
	int16_t ax = 0;
 51a:	1a 82       	std	Y+2, r1	; 0x02
 51c:	19 82       	std	Y+1, r1	; 0x01
	int16_t ay = 0;
 51e:	1c 82       	std	Y+4, r1	; 0x04
 520:	1b 82       	std	Y+3, r1	; 0x03
	int16_t az = 0;
 522:	1e 82       	std	Y+6, r1	; 0x06
 524:	1d 82       	std	Y+5, r1	; 0x05
	int16_t gx = 0;
 526:	18 86       	std	Y+8, r1	; 0x08
 528:	1f 82       	std	Y+7, r1	; 0x07
	int16_t gy = 0;
 52a:	1a 86       	std	Y+10, r1	; 0x0a
 52c:	19 86       	std	Y+9, r1	; 0x09
	int16_t gz = 0;
 52e:	1c 86       	std	Y+12, r1	; 0x0c
 530:	1b 86       	std	Y+11, r1	; 0x0b
	mpu6050_getRawData(&ax, &ay, &az, &gx, &gy, &gz);
 532:	ce 01       	movw	r24, r28
 534:	0b 96       	adiw	r24, 0x0b	; 11
 536:	7c 01       	movw	r14, r24
 538:	8e 01       	movw	r16, r28
 53a:	07 5f       	subi	r16, 0xF7	; 247
 53c:	1f 4f       	sbci	r17, 0xFF	; 255
 53e:	9e 01       	movw	r18, r28
 540:	29 5f       	subi	r18, 0xF9	; 249
 542:	3f 4f       	sbci	r19, 0xFF	; 255
 544:	ae 01       	movw	r20, r28
 546:	4b 5f       	subi	r20, 0xFB	; 251
 548:	5f 4f       	sbci	r21, 0xFF	; 255
 54a:	be 01       	movw	r22, r28
 54c:	6d 5f       	subi	r22, 0xFD	; 253
 54e:	7f 4f       	sbci	r23, 0xFF	; 255
 550:	0a 97       	sbiw	r24, 0x0a	; 10
 552:	0e 94 1f 02 	call	0x43e	; 0x43e <mpu6050_getRawData>

	#if MPU6050_CALIBRATEDACCGYRO == 1
    *axg = (double)(ax-MPU6050_AXOFFSET)/MPU6050_AXGAIN;
 556:	69 81       	ldd	r22, Y+1	; 0x01
 558:	7a 81       	ldd	r23, Y+2	; 0x02
 55a:	6a 52       	subi	r22, 0x2A	; 42
 55c:	7e 4f       	sbci	r23, 0xFE	; 254
 55e:	07 2e       	mov	r0, r23
 560:	00 0c       	add	r0, r0
 562:	88 0b       	sbc	r24, r24
 564:	99 0b       	sbc	r25, r25
 566:	0e 94 20 05 	call	0xa40	; 0xa40 <__floatsisf>
 56a:	20 e0       	ldi	r18, 0x00	; 0
 56c:	30 e0       	ldi	r19, 0x00	; 0
 56e:	40 e8       	ldi	r20, 0x80	; 128
 570:	58 e3       	ldi	r21, 0x38	; 56
 572:	0e 94 ac 05 	call	0xb58	; 0xb58 <__mulsf3>
 576:	f3 01       	movw	r30, r6
 578:	60 83       	st	Z, r22
 57a:	71 83       	std	Z+1, r23	; 0x01
 57c:	82 83       	std	Z+2, r24	; 0x02
 57e:	93 83       	std	Z+3, r25	; 0x03
    *ayg = (double)(ay-MPU6050_AYOFFSET)/MPU6050_AYGAIN;
 580:	6b 81       	ldd	r22, Y+3	; 0x03
 582:	7c 81       	ldd	r23, Y+4	; 0x04
 584:	67 5f       	subi	r22, 0xF7	; 247
 586:	75 40       	sbci	r23, 0x05	; 5
 588:	07 2e       	mov	r0, r23
 58a:	00 0c       	add	r0, r0
 58c:	88 0b       	sbc	r24, r24
 58e:	99 0b       	sbc	r25, r25
 590:	0e 94 20 05 	call	0xa40	; 0xa40 <__floatsisf>
 594:	20 e0       	ldi	r18, 0x00	; 0
 596:	30 e0       	ldi	r19, 0x00	; 0
 598:	40 e8       	ldi	r20, 0x80	; 128
 59a:	58 e3       	ldi	r21, 0x38	; 56
 59c:	0e 94 ac 05 	call	0xb58	; 0xb58 <__mulsf3>
 5a0:	f4 01       	movw	r30, r8
 5a2:	60 83       	st	Z, r22
 5a4:	71 83       	std	Z+1, r23	; 0x01
 5a6:	82 83       	std	Z+2, r24	; 0x02
 5a8:	93 83       	std	Z+3, r25	; 0x03
    *azg = (double)(az-MPU6050_AZOFFSET)/MPU6050_AZGAIN;
 5aa:	6d 81       	ldd	r22, Y+5	; 0x05
 5ac:	7e 81       	ldd	r23, Y+6	; 0x06
 5ae:	68 59       	subi	r22, 0x98	; 152
 5b0:	73 40       	sbci	r23, 0x03	; 3
 5b2:	07 2e       	mov	r0, r23
 5b4:	00 0c       	add	r0, r0
 5b6:	88 0b       	sbc	r24, r24
 5b8:	99 0b       	sbc	r25, r25
 5ba:	0e 94 20 05 	call	0xa40	; 0xa40 <__floatsisf>
 5be:	20 e0       	ldi	r18, 0x00	; 0
 5c0:	30 e0       	ldi	r19, 0x00	; 0
 5c2:	40 e8       	ldi	r20, 0x80	; 128
 5c4:	58 e3       	ldi	r21, 0x38	; 56
 5c6:	0e 94 ac 05 	call	0xb58	; 0xb58 <__mulsf3>
 5ca:	f5 01       	movw	r30, r10
 5cc:	60 83       	st	Z, r22
 5ce:	71 83       	std	Z+1, r23	; 0x01
 5d0:	82 83       	std	Z+2, r24	; 0x02
 5d2:	93 83       	std	Z+3, r25	; 0x03
    *gxds = (double)(gx-MPU6050_GXOFFSET)/MPU6050_GXGAIN;
 5d4:	6f 81       	ldd	r22, Y+7	; 0x07
 5d6:	78 85       	ldd	r23, Y+8	; 0x08
 5d8:	68 54       	subi	r22, 0x48	; 72
 5da:	71 09       	sbc	r23, r1
 5dc:	07 2e       	mov	r0, r23
 5de:	00 0c       	add	r0, r0
 5e0:	88 0b       	sbc	r24, r24
 5e2:	99 0b       	sbc	r25, r25
 5e4:	0e 94 20 05 	call	0xa40	; 0xa40 <__floatsisf>
 5e8:	23 e3       	ldi	r18, 0x33	; 51
 5ea:	33 e3       	ldi	r19, 0x33	; 51
 5ec:	43 e8       	ldi	r20, 0x83	; 131
 5ee:	51 e4       	ldi	r21, 0x41	; 65
 5f0:	0e 94 ac 04 	call	0x958	; 0x958 <__divsf3>
 5f4:	f6 01       	movw	r30, r12
 5f6:	60 83       	st	Z, r22
 5f8:	71 83       	std	Z+1, r23	; 0x01
 5fa:	82 83       	std	Z+2, r24	; 0x02
 5fc:	93 83       	std	Z+3, r25	; 0x03
	*gyds = (double)(gy-MPU6050_GYOFFSET)/MPU6050_GYGAIN;
 5fe:	69 85       	ldd	r22, Y+9	; 0x09
 600:	7a 85       	ldd	r23, Y+10	; 0x0a
 602:	61 52       	subi	r22, 0x21	; 33
 604:	71 09       	sbc	r23, r1
 606:	07 2e       	mov	r0, r23
 608:	00 0c       	add	r0, r0
 60a:	88 0b       	sbc	r24, r24
 60c:	99 0b       	sbc	r25, r25
 60e:	0e 94 20 05 	call	0xa40	; 0xa40 <__floatsisf>
 612:	23 e3       	ldi	r18, 0x33	; 51
 614:	33 e3       	ldi	r19, 0x33	; 51
 616:	43 e8       	ldi	r20, 0x83	; 131
 618:	51 e4       	ldi	r21, 0x41	; 65
 61a:	0e 94 ac 04 	call	0x958	; 0x958 <__divsf3>
 61e:	f2 01       	movw	r30, r4
 620:	60 83       	st	Z, r22
 622:	71 83       	std	Z+1, r23	; 0x01
 624:	82 83       	std	Z+2, r24	; 0x02
 626:	93 83       	std	Z+3, r25	; 0x03
	*gzds = (double)(gz-MPU6050_GZOFFSET)/MPU6050_GZGAIN;
 628:	6b 85       	ldd	r22, Y+11	; 0x0b
 62a:	7c 85       	ldd	r23, Y+12	; 0x0c
 62c:	62 5f       	subi	r22, 0xF2	; 242
 62e:	7f 4f       	sbci	r23, 0xFF	; 255
 630:	07 2e       	mov	r0, r23
 632:	00 0c       	add	r0, r0
 634:	88 0b       	sbc	r24, r24
 636:	99 0b       	sbc	r25, r25
 638:	0e 94 20 05 	call	0xa40	; 0xa40 <__floatsisf>
 63c:	23 e3       	ldi	r18, 0x33	; 51
 63e:	33 e3       	ldi	r19, 0x33	; 51
 640:	43 e8       	ldi	r20, 0x83	; 131
 642:	51 e4       	ldi	r21, 0x41	; 65
 644:	0e 94 ac 04 	call	0x958	; 0x958 <__divsf3>
 648:	f1 01       	movw	r30, r2
 64a:	60 83       	st	Z, r22
 64c:	71 83       	std	Z+1, r23	; 0x01
 64e:	82 83       	std	Z+2, r24	; 0x02
 650:	93 83       	std	Z+3, r25	; 0x03
    *azg = (double)(az)/MPU6050_AGAIN;
    *gxds = (double)(gx)/MPU6050_GGAIN;
	*gyds = (double)(gy)/MPU6050_GGAIN;
	*gzds = (double)(gz)/MPU6050_GGAIN;
	#endif
}
 652:	2c 96       	adiw	r28, 0x0c	; 12
 654:	0f b6       	in	r0, 0x3f	; 63
 656:	f8 94       	cli
 658:	de bf       	out	0x3e, r29	; 62
 65a:	0f be       	out	0x3f, r0	; 63
 65c:	cd bf       	out	0x3d, r28	; 61
 65e:	df 91       	pop	r29
 660:	cf 91       	pop	r28
 662:	1f 91       	pop	r17
 664:	0f 91       	pop	r16
 666:	ff 90       	pop	r15
 668:	ef 90       	pop	r14
 66a:	df 90       	pop	r13
 66c:	cf 90       	pop	r12
 66e:	bf 90       	pop	r11
 670:	af 90       	pop	r10
 672:	9f 90       	pop	r9
 674:	8f 90       	pop	r8
 676:	7f 90       	pop	r7
 678:	6f 90       	pop	r6
 67a:	5f 90       	pop	r5
 67c:	4f 90       	pop	r4
 67e:	3f 90       	pop	r3
 680:	2f 90       	pop	r2
 682:	08 95       	ret

00000684 <uartinit>:
#include "i2chw/i2cmaster.h"
#include "i2chw/twimastertimeout.c"

void uartinit (void)
{
	UBRR0H |= (unsigned char) (BAUDRATE>>8);
 684:	e5 ec       	ldi	r30, 0xC5	; 197
 686:	f0 e0       	ldi	r31, 0x00	; 0
 688:	80 81       	ld	r24, Z
 68a:	80 83       	st	Z, r24
	UBRR0L |= (unsigned char) BAUDRATE;
 68c:	e4 ec       	ldi	r30, 0xC4	; 196
 68e:	f0 e0       	ldi	r31, 0x00	; 0
 690:	80 81       	ld	r24, Z
 692:	89 61       	ori	r24, 0x19	; 25
 694:	80 83       	st	Z, r24
	UCSR0B |= (1<<TXEN0) | (1<<RXEN0); //enable receiver and transmitter
 696:	e1 ec       	ldi	r30, 0xC1	; 193
 698:	f0 e0       	ldi	r31, 0x00	; 0
 69a:	80 81       	ld	r24, Z
 69c:	88 61       	ori	r24, 0x18	; 24
 69e:	80 83       	st	Z, r24
	UCSR0C |= (3<<UCSZ00); // frame set
 6a0:	e2 ec       	ldi	r30, 0xC2	; 194
 6a2:	f0 e0       	ldi	r31, 0x00	; 0
 6a4:	80 81       	ld	r24, Z
 6a6:	86 60       	ori	r24, 0x06	; 6
 6a8:	80 83       	st	Z, r24
 6aa:	08 95       	ret

000006ac <uarttransmit>:
}

void uarttransmit (int data)
{
	while (!( UCSR0A & (1<<UDRE0))); // wait till register is free
 6ac:	e0 ec       	ldi	r30, 0xC0	; 192
 6ae:	f0 e0       	ldi	r31, 0x00	; 0
 6b0:	90 81       	ld	r25, Z
 6b2:	95 ff       	sbrs	r25, 5
 6b4:	fd cf       	rjmp	.-6      	; 0x6b0 <uarttransmit+0x4>
	//data = 99;
	UDR0 = data; // load data in the register
 6b6:	80 93 c6 00 	sts	0x00C6, r24
 6ba:	08 95       	ret

000006bc <uarttransmits>:
	//while (!( UCSR0A & (1<<UDRE0))); // second wait
	
}

void uarttransmits(char * str){
 6bc:	cf 93       	push	r28
 6be:	df 93       	push	r29
 6c0:	ec 01       	movw	r28, r24
	while (*str){
 6c2:	88 81       	ld	r24, Y
 6c4:	88 23       	and	r24, r24
 6c6:	39 f0       	breq	.+14     	; 0x6d6 <uarttransmits+0x1a>
 6c8:	21 96       	adiw	r28, 0x01	; 1
		uarttransmit(*str++);
 6ca:	90 e0       	ldi	r25, 0x00	; 0
 6cc:	0e 94 56 03 	call	0x6ac	; 0x6ac <uarttransmit>
	//while (!( UCSR0A & (1<<UDRE0))); // second wait
	
}

void uarttransmits(char * str){
	while (*str){
 6d0:	89 91       	ld	r24, Y+
 6d2:	81 11       	cpse	r24, r1
 6d4:	fa cf       	rjmp	.-12     	; 0x6ca <uarttransmits+0xe>
		uarttransmit(*str++);
	}
}
 6d6:	df 91       	pop	r29
 6d8:	cf 91       	pop	r28
 6da:	08 95       	ret

000006dc <adcinit>:

void adcinit(){
	
	//ADCSRA |= (1<<ADEN); // enabling adc
	ADCSRA |= (1<<ADPS2); // prescaler to 16
 6dc:	ea e7       	ldi	r30, 0x7A	; 122
 6de:	f0 e0       	ldi	r31, 0x00	; 0
 6e0:	80 81       	ld	r24, Z
 6e2:	84 60       	ori	r24, 0x04	; 4
 6e4:	80 83       	st	Z, r24
	ADMUX |= (1<<ADLAR); // left adjust
 6e6:	ec e7       	ldi	r30, 0x7C	; 124
 6e8:	f0 e0       	ldi	r31, 0x00	; 0
 6ea:	80 81       	ld	r24, Z
 6ec:	80 62       	ori	r24, 0x20	; 32
 6ee:	80 83       	st	Z, r24
	ADMUX &= ~((1<<REFS0)|(1<<REFS1));// reference voltage // refs0 = 0 and refs1 = 0
 6f0:	80 81       	ld	r24, Z
 6f2:	8f 73       	andi	r24, 0x3F	; 63
 6f4:	80 83       	st	Z, r24
 6f6:	08 95       	ret

000006f8 <adcread>:
}

void adcread(int pin){
	
	//while(!ADIF){}
	ADMUX &= ~((1<<MUX0)|(1<<MUX1)|(1<<MUX2)|(1<<MUX3));
 6f8:	ec e7       	ldi	r30, 0x7C	; 124
 6fa:	f0 e0       	ldi	r31, 0x00	; 0
 6fc:	20 81       	ld	r18, Z
 6fe:	20 7f       	andi	r18, 0xF0	; 240
 700:	20 83       	st	Z, r18
	
	switch(pin){
 702:	82 30       	cpi	r24, 0x02	; 2
 704:	91 05       	cpc	r25, r1
 706:	b9 f0       	breq	.+46     	; 0x736 <adcread+0x3e>
 708:	2c f4       	brge	.+10     	; 0x714 <adcread+0x1c>
 70a:	00 97       	sbiw	r24, 0x00	; 0
 70c:	49 f0       	breq	.+18     	; 0x720 <adcread+0x28>
 70e:	01 97       	sbiw	r24, 0x01	; 1
 710:	61 f0       	breq	.+24     	; 0x72a <adcread+0x32>
 712:	22 c0       	rjmp	.+68     	; 0x758 <adcread+0x60>
 714:	83 30       	cpi	r24, 0x03	; 3
 716:	91 05       	cpc	r25, r1
 718:	a1 f0       	breq	.+40     	; 0x742 <adcread+0x4a>
 71a:	04 97       	sbiw	r24, 0x04	; 4
 71c:	c1 f0       	breq	.+48     	; 0x74e <adcread+0x56>
 71e:	1c c0       	rjmp	.+56     	; 0x758 <adcread+0x60>
		case 0:	ADMUX |= (0<<MUX0); break; //setting input pin to ADC0
 720:	ec e7       	ldi	r30, 0x7C	; 124
 722:	f0 e0       	ldi	r31, 0x00	; 0
 724:	80 81       	ld	r24, Z
 726:	80 83       	st	Z, r24
 728:	17 c0       	rjmp	.+46     	; 0x758 <adcread+0x60>
		case 1: ADMUX |= (1<<MUX0); break;
 72a:	ec e7       	ldi	r30, 0x7C	; 124
 72c:	f0 e0       	ldi	r31, 0x00	; 0
 72e:	80 81       	ld	r24, Z
 730:	81 60       	ori	r24, 0x01	; 1
 732:	80 83       	st	Z, r24
 734:	11 c0       	rjmp	.+34     	; 0x758 <adcread+0x60>
		case 2: ADMUX |= (0<<MUX0)|(1<<MUX1); break;
 736:	ec e7       	ldi	r30, 0x7C	; 124
 738:	f0 e0       	ldi	r31, 0x00	; 0
 73a:	80 81       	ld	r24, Z
 73c:	82 60       	ori	r24, 0x02	; 2
 73e:	80 83       	st	Z, r24
 740:	0b c0       	rjmp	.+22     	; 0x758 <adcread+0x60>
		case 3: ADMUX |= (1<<MUX0)|(1<<MUX1); break;
 742:	ec e7       	ldi	r30, 0x7C	; 124
 744:	f0 e0       	ldi	r31, 0x00	; 0
 746:	80 81       	ld	r24, Z
 748:	83 60       	ori	r24, 0x03	; 3
 74a:	80 83       	st	Z, r24
 74c:	05 c0       	rjmp	.+10     	; 0x758 <adcread+0x60>
		case 4: ADMUX |= (0<<MUX0)|(0<<MUX1)|(1<<MUX2); break;
 74e:	ec e7       	ldi	r30, 0x7C	; 124
 750:	f0 e0       	ldi	r31, 0x00	; 0
 752:	80 81       	ld	r24, Z
 754:	84 60       	ori	r24, 0x04	; 4
 756:	80 83       	st	Z, r24
		default: break;
	}
	ADCSRA |= (1<<ADEN); // enabling adc everytime read is done
 758:	ea e7       	ldi	r30, 0x7A	; 122
 75a:	f0 e0       	ldi	r31, 0x00	; 0
 75c:	80 81       	ld	r24, Z
 75e:	80 68       	ori	r24, 0x80	; 128
 760:	80 83       	st	Z, r24
	PRR &= ~(1<<PRADC); // disabling power save mode to start //pradc = 0
 762:	a4 e6       	ldi	r26, 0x64	; 100
 764:	b0 e0       	ldi	r27, 0x00	; 0
 766:	8c 91       	ld	r24, X
 768:	8e 7f       	andi	r24, 0xFE	; 254
 76a:	8c 93       	st	X, r24
	ADCSRA |= (1<<ADSC);// starting conversion
 76c:	80 81       	ld	r24, Z
 76e:	80 64       	ori	r24, 0x40	; 64
 770:	80 83       	st	Z, r24
	while(ADCSRA & (1<<ADSC)){};
 772:	80 81       	ld	r24, Z
 774:	86 fd       	sbrc	r24, 6
 776:	fd cf       	rjmp	.-6      	; 0x772 <adcread+0x7a>
}
 778:	08 95       	ret

0000077a <adctransmit>:

void adctransmit(){
 77a:	cf 93       	push	r28
 77c:	df 93       	push	r29
 77e:	cd b7       	in	r28, 0x3d	; 61
 780:	de b7       	in	r29, 0x3e	; 62
 782:	2a 97       	sbiw	r28, 0x0a	; 10
 784:	0f b6       	in	r0, 0x3f	; 63
 786:	f8 94       	cli
 788:	de bf       	out	0x3e, r29	; 62
 78a:	0f be       	out	0x3f, r0	; 63
 78c:	cd bf       	out	0x3d, r28	; 61
	while(ADCSRA & (1<<ADSC)){};
 78e:	ea e7       	ldi	r30, 0x7A	; 122
 790:	f0 e0       	ldi	r31, 0x00	; 0
 792:	80 81       	ld	r24, Z
 794:	86 fd       	sbrc	r24, 6
 796:	fd cf       	rjmp	.-6      	; 0x792 <adctransmit+0x18>
	int p = ADCH;
 798:	80 91 79 00 	lds	r24, 0x0079
    } else if (__radix < 2 || __radix > 36) {
	*__s = 0;
	return __s;
    } else {
	extern char *__itoa_ncheck (int, char *, unsigned char);
	return __itoa_ncheck (__val, __s, __radix);
 79c:	4a e0       	ldi	r20, 0x0A	; 10
 79e:	be 01       	movw	r22, r28
 7a0:	6f 5f       	subi	r22, 0xFF	; 255
 7a2:	7f 4f       	sbci	r23, 0xFF	; 255
 7a4:	90 e0       	ldi	r25, 0x00	; 0
 7a6:	0e 94 19 06 	call	0xc32	; 0xc32 <__itoa_ncheck>
	char itmp[10];
	itoa(p, itmp, 10); uarttransmits(itmp);
 7aa:	ce 01       	movw	r24, r28
 7ac:	01 96       	adiw	r24, 0x01	; 1
 7ae:	0e 94 5e 03 	call	0x6bc	; 0x6bc <uarttransmits>
}
 7b2:	2a 96       	adiw	r28, 0x0a	; 10
 7b4:	0f b6       	in	r0, 0x3f	; 63
 7b6:	f8 94       	cli
 7b8:	de bf       	out	0x3e, r29	; 62
 7ba:	0f be       	out	0x3f, r0	; 63
 7bc:	cd bf       	out	0x3d, r28	; 61
 7be:	df 91       	pop	r29
 7c0:	cf 91       	pop	r28
 7c2:	08 95       	ret

000007c4 <mpu>:


void mpu(int mode) {
 7c4:	ef 92       	push	r14
 7c6:	ff 92       	push	r15
 7c8:	0f 93       	push	r16
 7ca:	1f 93       	push	r17
 7cc:	cf 93       	push	r28
 7ce:	df 93       	push	r29
 7d0:	cd b7       	in	r28, 0x3d	; 61
 7d2:	de b7       	in	r29, 0x3e	; 62
 7d4:	ae 97       	sbiw	r28, 0x2e	; 46
 7d6:	0f b6       	in	r0, 0x3f	; 63
 7d8:	f8 94       	cli
 7da:	de bf       	out	0x3e, r29	; 62
 7dc:	0f be       	out	0x3f, r0	; 63
 7de:	cd bf       	out	0x3d, r28	; 61
	mpumode = mode;
 7e0:	90 93 01 01 	sts	0x0101, r25
 7e4:	80 93 00 01 	sts	0x0100, r24
	
	#if MPU6050_GETATTITUDE == 0
    int16_t ax = 0;
 7e8:	1a 82       	std	Y+2, r1	; 0x02
 7ea:	19 82       	std	Y+1, r1	; 0x01
    int16_t ay = 0;
 7ec:	1c 82       	std	Y+4, r1	; 0x04
 7ee:	1b 82       	std	Y+3, r1	; 0x03
    int16_t az = 0;
 7f0:	1e 82       	std	Y+6, r1	; 0x06
 7f2:	1d 82       	std	Y+5, r1	; 0x05
    int16_t gx = 0;
 7f4:	18 86       	std	Y+8, r1	; 0x08
 7f6:	1f 82       	std	Y+7, r1	; 0x07
    int16_t gy = 0;
 7f8:	1a 86       	std	Y+10, r1	; 0x0a
 7fa:	19 86       	std	Y+9, r1	; 0x09
    int16_t gz = 0;
 7fc:	1c 86       	std	Y+12, r1	; 0x0c
 7fe:	1b 86       	std	Y+11, r1	; 0x0b
    double axg = 0;
 800:	1d 86       	std	Y+13, r1	; 0x0d
 802:	1e 86       	std	Y+14, r1	; 0x0e
 804:	1f 86       	std	Y+15, r1	; 0x0f
 806:	18 8a       	std	Y+16, r1	; 0x10
    double ayg = 0;
 808:	19 8a       	std	Y+17, r1	; 0x11
 80a:	1a 8a       	std	Y+18, r1	; 0x12
 80c:	1b 8a       	std	Y+19, r1	; 0x13
 80e:	1c 8a       	std	Y+20, r1	; 0x14
    double azg = 0;
 810:	1d 8a       	std	Y+21, r1	; 0x15
 812:	1e 8a       	std	Y+22, r1	; 0x16
 814:	1f 8a       	std	Y+23, r1	; 0x17
 816:	18 8e       	std	Y+24, r1	; 0x18
    double gxds = 0;
 818:	19 8e       	std	Y+25, r1	; 0x19
 81a:	1a 8e       	std	Y+26, r1	; 0x1a
 81c:	1b 8e       	std	Y+27, r1	; 0x1b
 81e:	1c 8e       	std	Y+28, r1	; 0x1c
    double gyds = 0;
 820:	1d 8e       	std	Y+29, r1	; 0x1d
 822:	1e 8e       	std	Y+30, r1	; 0x1e
 824:	1f 8e       	std	Y+31, r1	; 0x1f
 826:	18 a2       	std	Y+32, r1	; 0x20
    double gzds = 0;
 828:	19 a2       	std	Y+33, r1	; 0x21
 82a:	1a a2       	std	Y+34, r1	; 0x22
 82c:	1b a2       	std	Y+35, r1	; 0x23
 82e:	1c a2       	std	Y+36, r1	; 0x24

    //init uart
	//uart_init(UART_BAUD_SELECT(UART_BAUD_RATE,F_CPU));
	
	//init interrupt
	sei();
 830:	78 94       	sei

	//init mpu6050
	mpu6050_init();
 832:	0e 94 fe 01 	call	0x3fc	; 0x3fc <mpu6050_init>
	//mpu6050_dmpEnable();
	//_delay_ms(10);
	#endif

	#if MPU6050_GETATTITUDE == 0
	mpu6050_getRawData(&ax, &ay, &az, &gx, &gy, &gz);
 836:	ce 01       	movw	r24, r28
 838:	0b 96       	adiw	r24, 0x0b	; 11
 83a:	7c 01       	movw	r14, r24
 83c:	8e 01       	movw	r16, r28
 83e:	07 5f       	subi	r16, 0xF7	; 247
 840:	1f 4f       	sbci	r17, 0xFF	; 255
 842:	9e 01       	movw	r18, r28
 844:	29 5f       	subi	r18, 0xF9	; 249
 846:	3f 4f       	sbci	r19, 0xFF	; 255
 848:	ae 01       	movw	r20, r28
 84a:	4b 5f       	subi	r20, 0xFB	; 251
 84c:	5f 4f       	sbci	r21, 0xFF	; 255
 84e:	be 01       	movw	r22, r28
 850:	6d 5f       	subi	r22, 0xFD	; 253
 852:	7f 4f       	sbci	r23, 0xFF	; 255
 854:	0a 97       	sbiw	r24, 0x0a	; 10
 856:	0e 94 1f 02 	call	0x43e	; 0x43e <mpu6050_getRawData>
	mpu6050_getConvData(&axg, &ayg, &azg, &gxds, &gyds, &gzds);
 85a:	ce 01       	movw	r24, r28
 85c:	81 96       	adiw	r24, 0x21	; 33
 85e:	7c 01       	movw	r14, r24
 860:	0c 5e       	subi	r16, 0xEC	; 236
 862:	1f 4f       	sbci	r17, 0xFF	; 255
 864:	9e 01       	movw	r18, r28
 866:	27 5e       	subi	r18, 0xE7	; 231
 868:	3f 4f       	sbci	r19, 0xFF	; 255
 86a:	ae 01       	movw	r20, r28
 86c:	4b 5e       	subi	r20, 0xEB	; 235
 86e:	5f 4f       	sbci	r21, 0xFF	; 255
 870:	be 01       	movw	r22, r28
 872:	6f 5e       	subi	r22, 0xEF	; 239
 874:	7f 4f       	sbci	r23, 0xFF	; 255
 876:	44 97       	sbiw	r24, 0x14	; 20
 878:	0e 94 6d 02 	call	0x4da	; 0x4da <mpu6050_getConvData>

	#if MPU6050_GETATTITUDE == 0
	char itmp[10];
			
	//uarttransmit(ax);
	ltoa(ax, itmp, 10); uarttransmits(itmp);
 87c:	69 81       	ldd	r22, Y+1	; 0x01
 87e:	7a 81       	ldd	r23, Y+2	; 0x02
 880:	07 2e       	mov	r0, r23
 882:	00 0c       	add	r0, r0
 884:	88 0b       	sbc	r24, r24
 886:	99 0b       	sbc	r25, r25
    } else if (__radix < 2 || __radix > 36) {
	*__s = 0;
	return __s;
    } else {
	extern char *__ltoa_ncheck (long, char *, unsigned char);
	return __ltoa_ncheck (__val, __s, __radix);
 888:	2a e0       	ldi	r18, 0x0A	; 10
 88a:	ae 01       	movw	r20, r28
 88c:	4b 5d       	subi	r20, 0xDB	; 219
 88e:	5f 4f       	sbci	r21, 0xFF	; 255
 890:	0e 94 24 06 	call	0xc48	; 0xc48 <__ltoa_ncheck>
 894:	ce 01       	movw	r24, r28
 896:	85 96       	adiw	r24, 0x25	; 37
 898:	0e 94 5e 03 	call	0x6bc	; 0x6bc <uarttransmits>
	uarttransmit('+');
 89c:	8b e2       	ldi	r24, 0x2B	; 43
 89e:	90 e0       	ldi	r25, 0x00	; 0
 8a0:	0e 94 56 03 	call	0x6ac	; 0x6ac <uarttransmit>
	ltoa(ay, itmp, 10); uarttransmits(itmp);
 8a4:	6b 81       	ldd	r22, Y+3	; 0x03
 8a6:	7c 81       	ldd	r23, Y+4	; 0x04
 8a8:	07 2e       	mov	r0, r23
 8aa:	00 0c       	add	r0, r0
 8ac:	88 0b       	sbc	r24, r24
 8ae:	99 0b       	sbc	r25, r25
 8b0:	2a e0       	ldi	r18, 0x0A	; 10
 8b2:	ae 01       	movw	r20, r28
 8b4:	4b 5d       	subi	r20, 0xDB	; 219
 8b6:	5f 4f       	sbci	r21, 0xFF	; 255
 8b8:	0e 94 24 06 	call	0xc48	; 0xc48 <__ltoa_ncheck>
 8bc:	ce 01       	movw	r24, r28
 8be:	85 96       	adiw	r24, 0x25	; 37
 8c0:	0e 94 5e 03 	call	0x6bc	; 0x6bc <uarttransmits>
	uarttransmit('+');
 8c4:	8b e2       	ldi	r24, 0x2B	; 43
 8c6:	90 e0       	ldi	r25, 0x00	; 0
 8c8:	0e 94 56 03 	call	0x6ac	; 0x6ac <uarttransmit>
	ltoa(az, itmp, 10); uarttransmits(itmp);
 8cc:	6d 81       	ldd	r22, Y+5	; 0x05
 8ce:	7e 81       	ldd	r23, Y+6	; 0x06
 8d0:	07 2e       	mov	r0, r23
 8d2:	00 0c       	add	r0, r0
 8d4:	88 0b       	sbc	r24, r24
 8d6:	99 0b       	sbc	r25, r25
 8d8:	2a e0       	ldi	r18, 0x0A	; 10
 8da:	ae 01       	movw	r20, r28
 8dc:	4b 5d       	subi	r20, 0xDB	; 219
 8de:	5f 4f       	sbci	r21, 0xFF	; 255
 8e0:	0e 94 24 06 	call	0xc48	; 0xc48 <__ltoa_ncheck>
 8e4:	ce 01       	movw	r24, r28
 8e6:	85 96       	adiw	r24, 0x25	; 37
 8e8:	0e 94 5e 03 	call	0x6bc	; 0x6bc <uarttransmits>
	uarttransmit('+');
	dtostrf(yaw,50,6,ptr);
	uarttransmits(ptr);
	
	#endif
}
 8ec:	ae 96       	adiw	r28, 0x2e	; 46
 8ee:	0f b6       	in	r0, 0x3f	; 63
 8f0:	f8 94       	cli
 8f2:	de bf       	out	0x3e, r29	; 62
 8f4:	0f be       	out	0x3f, r0	; 63
 8f6:	cd bf       	out	0x3d, r28	; 61
 8f8:	df 91       	pop	r29
 8fa:	cf 91       	pop	r28
 8fc:	1f 91       	pop	r17
 8fe:	0f 91       	pop	r16
 900:	ff 90       	pop	r15
 902:	ef 90       	pop	r14
 904:	08 95       	ret

00000906 <main>:

int main(void){
	uartinit();
 906:	0e 94 42 03 	call	0x684	; 0x684 <uartinit>
	adcinit();
 90a:	0e 94 6e 03 	call	0x6dc	; 0x6dc <adcinit>
		
	while(1){
		uarttransmit('#');
 90e:	05 e0       	ldi	r16, 0x05	; 5
 910:	10 e0       	ldi	r17, 0x00	; 0
 912:	83 e2       	ldi	r24, 0x23	; 35
 914:	90 e0       	ldi	r25, 0x00	; 0
 916:	0e 94 56 03 	call	0x6ac	; 0x6ac <uarttransmit>
 91a:	c0 2f       	mov	r28, r16
 91c:	d1 2f       	mov	r29, r17
		for (int i=0; i<5; i++)
		{
			adcread(0); adctransmit();
 91e:	80 e0       	ldi	r24, 0x00	; 0
 920:	90 e0       	ldi	r25, 0x00	; 0
 922:	0e 94 7c 03 	call	0x6f8	; 0x6f8 <adcread>
 926:	0e 94 bd 03 	call	0x77a	; 0x77a <adctransmit>
			uarttransmit('+');
 92a:	8b e2       	ldi	r24, 0x2B	; 43
 92c:	90 e0       	ldi	r25, 0x00	; 0
 92e:	0e 94 56 03 	call	0x6ac	; 0x6ac <uarttransmit>
 932:	21 97       	sbiw	r28, 0x01	; 1
	uartinit();
	adcinit();
		
	while(1){
		uarttransmit('#');
		for (int i=0; i<5; i++)
 934:	a1 f7       	brne	.-24     	; 0x91e <main+0x18>
		{
			adcread(0); adctransmit();
			uarttransmit('+');
		}
		
		mpu(0);
 936:	80 e0       	ldi	r24, 0x00	; 0
 938:	90 e0       	ldi	r25, 0x00	; 0
 93a:	0e 94 e2 03 	call	0x7c4	; 0x7c4 <mpu>
		uarttransmit('+');
 93e:	8b e2       	ldi	r24, 0x2B	; 43
 940:	90 e0       	ldi	r25, 0x00	; 0
 942:	0e 94 56 03 	call	0x6ac	; 0x6ac <uarttransmit>
		mpu(1);
 946:	81 e0       	ldi	r24, 0x01	; 1
 948:	90 e0       	ldi	r25, 0x00	; 0
 94a:	0e 94 e2 03 	call	0x7c4	; 0x7c4 <mpu>
		uarttransmit('~');
 94e:	8e e7       	ldi	r24, 0x7E	; 126
 950:	90 e0       	ldi	r25, 0x00	; 0
 952:	0e 94 56 03 	call	0x6ac	; 0x6ac <uarttransmit>
	}
 956:	dd cf       	rjmp	.-70     	; 0x912 <main+0xc>

00000958 <__divsf3>:
 958:	0e 94 c0 04 	call	0x980	; 0x980 <__divsf3x>
 95c:	0c 94 72 05 	jmp	0xae4	; 0xae4 <__fp_round>
 960:	0e 94 6b 05 	call	0xad6	; 0xad6 <__fp_pscB>
 964:	58 f0       	brcs	.+22     	; 0x97c <__divsf3+0x24>
 966:	0e 94 64 05 	call	0xac8	; 0xac8 <__fp_pscA>
 96a:	40 f0       	brcs	.+16     	; 0x97c <__divsf3+0x24>
 96c:	29 f4       	brne	.+10     	; 0x978 <__divsf3+0x20>
 96e:	5f 3f       	cpi	r21, 0xFF	; 255
 970:	29 f0       	breq	.+10     	; 0x97c <__divsf3+0x24>
 972:	0c 94 5b 05 	jmp	0xab6	; 0xab6 <__fp_inf>
 976:	51 11       	cpse	r21, r1
 978:	0c 94 a6 05 	jmp	0xb4c	; 0xb4c <__fp_szero>
 97c:	0c 94 61 05 	jmp	0xac2	; 0xac2 <__fp_nan>

00000980 <__divsf3x>:
 980:	0e 94 83 05 	call	0xb06	; 0xb06 <__fp_split3>
 984:	68 f3       	brcs	.-38     	; 0x960 <__divsf3+0x8>

00000986 <__divsf3_pse>:
 986:	99 23       	and	r25, r25
 988:	b1 f3       	breq	.-20     	; 0x976 <__divsf3+0x1e>
 98a:	55 23       	and	r21, r21
 98c:	91 f3       	breq	.-28     	; 0x972 <__divsf3+0x1a>
 98e:	95 1b       	sub	r25, r21
 990:	55 0b       	sbc	r21, r21
 992:	bb 27       	eor	r27, r27
 994:	aa 27       	eor	r26, r26
 996:	62 17       	cp	r22, r18
 998:	73 07       	cpc	r23, r19
 99a:	84 07       	cpc	r24, r20
 99c:	38 f0       	brcs	.+14     	; 0x9ac <__divsf3_pse+0x26>
 99e:	9f 5f       	subi	r25, 0xFF	; 255
 9a0:	5f 4f       	sbci	r21, 0xFF	; 255
 9a2:	22 0f       	add	r18, r18
 9a4:	33 1f       	adc	r19, r19
 9a6:	44 1f       	adc	r20, r20
 9a8:	aa 1f       	adc	r26, r26
 9aa:	a9 f3       	breq	.-22     	; 0x996 <__divsf3_pse+0x10>
 9ac:	35 d0       	rcall	.+106    	; 0xa18 <__divsf3_pse+0x92>
 9ae:	0e 2e       	mov	r0, r30
 9b0:	3a f0       	brmi	.+14     	; 0x9c0 <__divsf3_pse+0x3a>
 9b2:	e0 e8       	ldi	r30, 0x80	; 128
 9b4:	32 d0       	rcall	.+100    	; 0xa1a <__divsf3_pse+0x94>
 9b6:	91 50       	subi	r25, 0x01	; 1
 9b8:	50 40       	sbci	r21, 0x00	; 0
 9ba:	e6 95       	lsr	r30
 9bc:	00 1c       	adc	r0, r0
 9be:	ca f7       	brpl	.-14     	; 0x9b2 <__divsf3_pse+0x2c>
 9c0:	2b d0       	rcall	.+86     	; 0xa18 <__divsf3_pse+0x92>
 9c2:	fe 2f       	mov	r31, r30
 9c4:	29 d0       	rcall	.+82     	; 0xa18 <__divsf3_pse+0x92>
 9c6:	66 0f       	add	r22, r22
 9c8:	77 1f       	adc	r23, r23
 9ca:	88 1f       	adc	r24, r24
 9cc:	bb 1f       	adc	r27, r27
 9ce:	26 17       	cp	r18, r22
 9d0:	37 07       	cpc	r19, r23
 9d2:	48 07       	cpc	r20, r24
 9d4:	ab 07       	cpc	r26, r27
 9d6:	b0 e8       	ldi	r27, 0x80	; 128
 9d8:	09 f0       	breq	.+2      	; 0x9dc <__divsf3_pse+0x56>
 9da:	bb 0b       	sbc	r27, r27
 9dc:	80 2d       	mov	r24, r0
 9de:	bf 01       	movw	r22, r30
 9e0:	ff 27       	eor	r31, r31
 9e2:	93 58       	subi	r25, 0x83	; 131
 9e4:	5f 4f       	sbci	r21, 0xFF	; 255
 9e6:	3a f0       	brmi	.+14     	; 0x9f6 <__divsf3_pse+0x70>
 9e8:	9e 3f       	cpi	r25, 0xFE	; 254
 9ea:	51 05       	cpc	r21, r1
 9ec:	78 f0       	brcs	.+30     	; 0xa0c <__divsf3_pse+0x86>
 9ee:	0c 94 5b 05 	jmp	0xab6	; 0xab6 <__fp_inf>
 9f2:	0c 94 a6 05 	jmp	0xb4c	; 0xb4c <__fp_szero>
 9f6:	5f 3f       	cpi	r21, 0xFF	; 255
 9f8:	e4 f3       	brlt	.-8      	; 0x9f2 <__divsf3_pse+0x6c>
 9fa:	98 3e       	cpi	r25, 0xE8	; 232
 9fc:	d4 f3       	brlt	.-12     	; 0x9f2 <__divsf3_pse+0x6c>
 9fe:	86 95       	lsr	r24
 a00:	77 95       	ror	r23
 a02:	67 95       	ror	r22
 a04:	b7 95       	ror	r27
 a06:	f7 95       	ror	r31
 a08:	9f 5f       	subi	r25, 0xFF	; 255
 a0a:	c9 f7       	brne	.-14     	; 0x9fe <__divsf3_pse+0x78>
 a0c:	88 0f       	add	r24, r24
 a0e:	91 1d       	adc	r25, r1
 a10:	96 95       	lsr	r25
 a12:	87 95       	ror	r24
 a14:	97 f9       	bld	r25, 7
 a16:	08 95       	ret
 a18:	e1 e0       	ldi	r30, 0x01	; 1
 a1a:	66 0f       	add	r22, r22
 a1c:	77 1f       	adc	r23, r23
 a1e:	88 1f       	adc	r24, r24
 a20:	bb 1f       	adc	r27, r27
 a22:	62 17       	cp	r22, r18
 a24:	73 07       	cpc	r23, r19
 a26:	84 07       	cpc	r24, r20
 a28:	ba 07       	cpc	r27, r26
 a2a:	20 f0       	brcs	.+8      	; 0xa34 <__divsf3_pse+0xae>
 a2c:	62 1b       	sub	r22, r18
 a2e:	73 0b       	sbc	r23, r19
 a30:	84 0b       	sbc	r24, r20
 a32:	ba 0b       	sbc	r27, r26
 a34:	ee 1f       	adc	r30, r30
 a36:	88 f7       	brcc	.-30     	; 0xa1a <__divsf3_pse+0x94>
 a38:	e0 95       	com	r30
 a3a:	08 95       	ret

00000a3c <__floatunsisf>:
 a3c:	e8 94       	clt
 a3e:	09 c0       	rjmp	.+18     	; 0xa52 <__floatsisf+0x12>

00000a40 <__floatsisf>:
 a40:	97 fb       	bst	r25, 7
 a42:	3e f4       	brtc	.+14     	; 0xa52 <__floatsisf+0x12>
 a44:	90 95       	com	r25
 a46:	80 95       	com	r24
 a48:	70 95       	com	r23
 a4a:	61 95       	neg	r22
 a4c:	7f 4f       	sbci	r23, 0xFF	; 255
 a4e:	8f 4f       	sbci	r24, 0xFF	; 255
 a50:	9f 4f       	sbci	r25, 0xFF	; 255
 a52:	99 23       	and	r25, r25
 a54:	a9 f0       	breq	.+42     	; 0xa80 <__floatsisf+0x40>
 a56:	f9 2f       	mov	r31, r25
 a58:	96 e9       	ldi	r25, 0x96	; 150
 a5a:	bb 27       	eor	r27, r27
 a5c:	93 95       	inc	r25
 a5e:	f6 95       	lsr	r31
 a60:	87 95       	ror	r24
 a62:	77 95       	ror	r23
 a64:	67 95       	ror	r22
 a66:	b7 95       	ror	r27
 a68:	f1 11       	cpse	r31, r1
 a6a:	f8 cf       	rjmp	.-16     	; 0xa5c <__floatsisf+0x1c>
 a6c:	fa f4       	brpl	.+62     	; 0xaac <__floatsisf+0x6c>
 a6e:	bb 0f       	add	r27, r27
 a70:	11 f4       	brne	.+4      	; 0xa76 <__floatsisf+0x36>
 a72:	60 ff       	sbrs	r22, 0
 a74:	1b c0       	rjmp	.+54     	; 0xaac <__floatsisf+0x6c>
 a76:	6f 5f       	subi	r22, 0xFF	; 255
 a78:	7f 4f       	sbci	r23, 0xFF	; 255
 a7a:	8f 4f       	sbci	r24, 0xFF	; 255
 a7c:	9f 4f       	sbci	r25, 0xFF	; 255
 a7e:	16 c0       	rjmp	.+44     	; 0xaac <__floatsisf+0x6c>
 a80:	88 23       	and	r24, r24
 a82:	11 f0       	breq	.+4      	; 0xa88 <__floatsisf+0x48>
 a84:	96 e9       	ldi	r25, 0x96	; 150
 a86:	11 c0       	rjmp	.+34     	; 0xaaa <__floatsisf+0x6a>
 a88:	77 23       	and	r23, r23
 a8a:	21 f0       	breq	.+8      	; 0xa94 <__floatsisf+0x54>
 a8c:	9e e8       	ldi	r25, 0x8E	; 142
 a8e:	87 2f       	mov	r24, r23
 a90:	76 2f       	mov	r23, r22
 a92:	05 c0       	rjmp	.+10     	; 0xa9e <__floatsisf+0x5e>
 a94:	66 23       	and	r22, r22
 a96:	71 f0       	breq	.+28     	; 0xab4 <__floatsisf+0x74>
 a98:	96 e8       	ldi	r25, 0x86	; 134
 a9a:	86 2f       	mov	r24, r22
 a9c:	70 e0       	ldi	r23, 0x00	; 0
 a9e:	60 e0       	ldi	r22, 0x00	; 0
 aa0:	2a f0       	brmi	.+10     	; 0xaac <__floatsisf+0x6c>
 aa2:	9a 95       	dec	r25
 aa4:	66 0f       	add	r22, r22
 aa6:	77 1f       	adc	r23, r23
 aa8:	88 1f       	adc	r24, r24
 aaa:	da f7       	brpl	.-10     	; 0xaa2 <__floatsisf+0x62>
 aac:	88 0f       	add	r24, r24
 aae:	96 95       	lsr	r25
 ab0:	87 95       	ror	r24
 ab2:	97 f9       	bld	r25, 7
 ab4:	08 95       	ret

00000ab6 <__fp_inf>:
 ab6:	97 f9       	bld	r25, 7
 ab8:	9f 67       	ori	r25, 0x7F	; 127
 aba:	80 e8       	ldi	r24, 0x80	; 128
 abc:	70 e0       	ldi	r23, 0x00	; 0
 abe:	60 e0       	ldi	r22, 0x00	; 0
 ac0:	08 95       	ret

00000ac2 <__fp_nan>:
 ac2:	9f ef       	ldi	r25, 0xFF	; 255
 ac4:	80 ec       	ldi	r24, 0xC0	; 192
 ac6:	08 95       	ret

00000ac8 <__fp_pscA>:
 ac8:	00 24       	eor	r0, r0
 aca:	0a 94       	dec	r0
 acc:	16 16       	cp	r1, r22
 ace:	17 06       	cpc	r1, r23
 ad0:	18 06       	cpc	r1, r24
 ad2:	09 06       	cpc	r0, r25
 ad4:	08 95       	ret

00000ad6 <__fp_pscB>:
 ad6:	00 24       	eor	r0, r0
 ad8:	0a 94       	dec	r0
 ada:	12 16       	cp	r1, r18
 adc:	13 06       	cpc	r1, r19
 ade:	14 06       	cpc	r1, r20
 ae0:	05 06       	cpc	r0, r21
 ae2:	08 95       	ret

00000ae4 <__fp_round>:
 ae4:	09 2e       	mov	r0, r25
 ae6:	03 94       	inc	r0
 ae8:	00 0c       	add	r0, r0
 aea:	11 f4       	brne	.+4      	; 0xaf0 <__fp_round+0xc>
 aec:	88 23       	and	r24, r24
 aee:	52 f0       	brmi	.+20     	; 0xb04 <__fp_round+0x20>
 af0:	bb 0f       	add	r27, r27
 af2:	40 f4       	brcc	.+16     	; 0xb04 <__fp_round+0x20>
 af4:	bf 2b       	or	r27, r31
 af6:	11 f4       	brne	.+4      	; 0xafc <__fp_round+0x18>
 af8:	60 ff       	sbrs	r22, 0
 afa:	04 c0       	rjmp	.+8      	; 0xb04 <__fp_round+0x20>
 afc:	6f 5f       	subi	r22, 0xFF	; 255
 afe:	7f 4f       	sbci	r23, 0xFF	; 255
 b00:	8f 4f       	sbci	r24, 0xFF	; 255
 b02:	9f 4f       	sbci	r25, 0xFF	; 255
 b04:	08 95       	ret

00000b06 <__fp_split3>:
 b06:	57 fd       	sbrc	r21, 7
 b08:	90 58       	subi	r25, 0x80	; 128
 b0a:	44 0f       	add	r20, r20
 b0c:	55 1f       	adc	r21, r21
 b0e:	59 f0       	breq	.+22     	; 0xb26 <__fp_splitA+0x10>
 b10:	5f 3f       	cpi	r21, 0xFF	; 255
 b12:	71 f0       	breq	.+28     	; 0xb30 <__fp_splitA+0x1a>
 b14:	47 95       	ror	r20

00000b16 <__fp_splitA>:
 b16:	88 0f       	add	r24, r24
 b18:	97 fb       	bst	r25, 7
 b1a:	99 1f       	adc	r25, r25
 b1c:	61 f0       	breq	.+24     	; 0xb36 <__fp_splitA+0x20>
 b1e:	9f 3f       	cpi	r25, 0xFF	; 255
 b20:	79 f0       	breq	.+30     	; 0xb40 <__fp_splitA+0x2a>
 b22:	87 95       	ror	r24
 b24:	08 95       	ret
 b26:	12 16       	cp	r1, r18
 b28:	13 06       	cpc	r1, r19
 b2a:	14 06       	cpc	r1, r20
 b2c:	55 1f       	adc	r21, r21
 b2e:	f2 cf       	rjmp	.-28     	; 0xb14 <__fp_split3+0xe>
 b30:	46 95       	lsr	r20
 b32:	f1 df       	rcall	.-30     	; 0xb16 <__fp_splitA>
 b34:	08 c0       	rjmp	.+16     	; 0xb46 <__fp_splitA+0x30>
 b36:	16 16       	cp	r1, r22
 b38:	17 06       	cpc	r1, r23
 b3a:	18 06       	cpc	r1, r24
 b3c:	99 1f       	adc	r25, r25
 b3e:	f1 cf       	rjmp	.-30     	; 0xb22 <__fp_splitA+0xc>
 b40:	86 95       	lsr	r24
 b42:	71 05       	cpc	r23, r1
 b44:	61 05       	cpc	r22, r1
 b46:	08 94       	sec
 b48:	08 95       	ret

00000b4a <__fp_zero>:
 b4a:	e8 94       	clt

00000b4c <__fp_szero>:
 b4c:	bb 27       	eor	r27, r27
 b4e:	66 27       	eor	r22, r22
 b50:	77 27       	eor	r23, r23
 b52:	cb 01       	movw	r24, r22
 b54:	97 f9       	bld	r25, 7
 b56:	08 95       	ret

00000b58 <__mulsf3>:
 b58:	0e 94 bf 05 	call	0xb7e	; 0xb7e <__mulsf3x>
 b5c:	0c 94 72 05 	jmp	0xae4	; 0xae4 <__fp_round>
 b60:	0e 94 64 05 	call	0xac8	; 0xac8 <__fp_pscA>
 b64:	38 f0       	brcs	.+14     	; 0xb74 <__mulsf3+0x1c>
 b66:	0e 94 6b 05 	call	0xad6	; 0xad6 <__fp_pscB>
 b6a:	20 f0       	brcs	.+8      	; 0xb74 <__mulsf3+0x1c>
 b6c:	95 23       	and	r25, r21
 b6e:	11 f0       	breq	.+4      	; 0xb74 <__mulsf3+0x1c>
 b70:	0c 94 5b 05 	jmp	0xab6	; 0xab6 <__fp_inf>
 b74:	0c 94 61 05 	jmp	0xac2	; 0xac2 <__fp_nan>
 b78:	11 24       	eor	r1, r1
 b7a:	0c 94 a6 05 	jmp	0xb4c	; 0xb4c <__fp_szero>

00000b7e <__mulsf3x>:
 b7e:	0e 94 83 05 	call	0xb06	; 0xb06 <__fp_split3>
 b82:	70 f3       	brcs	.-36     	; 0xb60 <__mulsf3+0x8>

00000b84 <__mulsf3_pse>:
 b84:	95 9f       	mul	r25, r21
 b86:	c1 f3       	breq	.-16     	; 0xb78 <__mulsf3+0x20>
 b88:	95 0f       	add	r25, r21
 b8a:	50 e0       	ldi	r21, 0x00	; 0
 b8c:	55 1f       	adc	r21, r21
 b8e:	62 9f       	mul	r22, r18
 b90:	f0 01       	movw	r30, r0
 b92:	72 9f       	mul	r23, r18
 b94:	bb 27       	eor	r27, r27
 b96:	f0 0d       	add	r31, r0
 b98:	b1 1d       	adc	r27, r1
 b9a:	63 9f       	mul	r22, r19
 b9c:	aa 27       	eor	r26, r26
 b9e:	f0 0d       	add	r31, r0
 ba0:	b1 1d       	adc	r27, r1
 ba2:	aa 1f       	adc	r26, r26
 ba4:	64 9f       	mul	r22, r20
 ba6:	66 27       	eor	r22, r22
 ba8:	b0 0d       	add	r27, r0
 baa:	a1 1d       	adc	r26, r1
 bac:	66 1f       	adc	r22, r22
 bae:	82 9f       	mul	r24, r18
 bb0:	22 27       	eor	r18, r18
 bb2:	b0 0d       	add	r27, r0
 bb4:	a1 1d       	adc	r26, r1
 bb6:	62 1f       	adc	r22, r18
 bb8:	73 9f       	mul	r23, r19
 bba:	b0 0d       	add	r27, r0
 bbc:	a1 1d       	adc	r26, r1
 bbe:	62 1f       	adc	r22, r18
 bc0:	83 9f       	mul	r24, r19
 bc2:	a0 0d       	add	r26, r0
 bc4:	61 1d       	adc	r22, r1
 bc6:	22 1f       	adc	r18, r18
 bc8:	74 9f       	mul	r23, r20
 bca:	33 27       	eor	r19, r19
 bcc:	a0 0d       	add	r26, r0
 bce:	61 1d       	adc	r22, r1
 bd0:	23 1f       	adc	r18, r19
 bd2:	84 9f       	mul	r24, r20
 bd4:	60 0d       	add	r22, r0
 bd6:	21 1d       	adc	r18, r1
 bd8:	82 2f       	mov	r24, r18
 bda:	76 2f       	mov	r23, r22
 bdc:	6a 2f       	mov	r22, r26
 bde:	11 24       	eor	r1, r1
 be0:	9f 57       	subi	r25, 0x7F	; 127
 be2:	50 40       	sbci	r21, 0x00	; 0
 be4:	9a f0       	brmi	.+38     	; 0xc0c <__mulsf3_pse+0x88>
 be6:	f1 f0       	breq	.+60     	; 0xc24 <__mulsf3_pse+0xa0>
 be8:	88 23       	and	r24, r24
 bea:	4a f0       	brmi	.+18     	; 0xbfe <__mulsf3_pse+0x7a>
 bec:	ee 0f       	add	r30, r30
 bee:	ff 1f       	adc	r31, r31
 bf0:	bb 1f       	adc	r27, r27
 bf2:	66 1f       	adc	r22, r22
 bf4:	77 1f       	adc	r23, r23
 bf6:	88 1f       	adc	r24, r24
 bf8:	91 50       	subi	r25, 0x01	; 1
 bfa:	50 40       	sbci	r21, 0x00	; 0
 bfc:	a9 f7       	brne	.-22     	; 0xbe8 <__mulsf3_pse+0x64>
 bfe:	9e 3f       	cpi	r25, 0xFE	; 254
 c00:	51 05       	cpc	r21, r1
 c02:	80 f0       	brcs	.+32     	; 0xc24 <__mulsf3_pse+0xa0>
 c04:	0c 94 5b 05 	jmp	0xab6	; 0xab6 <__fp_inf>
 c08:	0c 94 a6 05 	jmp	0xb4c	; 0xb4c <__fp_szero>
 c0c:	5f 3f       	cpi	r21, 0xFF	; 255
 c0e:	e4 f3       	brlt	.-8      	; 0xc08 <__mulsf3_pse+0x84>
 c10:	98 3e       	cpi	r25, 0xE8	; 232
 c12:	d4 f3       	brlt	.-12     	; 0xc08 <__mulsf3_pse+0x84>
 c14:	86 95       	lsr	r24
 c16:	77 95       	ror	r23
 c18:	67 95       	ror	r22
 c1a:	b7 95       	ror	r27
 c1c:	f7 95       	ror	r31
 c1e:	e7 95       	ror	r30
 c20:	9f 5f       	subi	r25, 0xFF	; 255
 c22:	c1 f7       	brne	.-16     	; 0xc14 <__mulsf3_pse+0x90>
 c24:	fe 2b       	or	r31, r30
 c26:	88 0f       	add	r24, r24
 c28:	91 1d       	adc	r25, r1
 c2a:	96 95       	lsr	r25
 c2c:	87 95       	ror	r24
 c2e:	97 f9       	bld	r25, 7
 c30:	08 95       	ret

00000c32 <__itoa_ncheck>:
 c32:	bb 27       	eor	r27, r27
 c34:	4a 30       	cpi	r20, 0x0A	; 10
 c36:	31 f4       	brne	.+12     	; 0xc44 <__itoa_ncheck+0x12>
 c38:	99 23       	and	r25, r25
 c3a:	22 f4       	brpl	.+8      	; 0xc44 <__itoa_ncheck+0x12>
 c3c:	bd e2       	ldi	r27, 0x2D	; 45
 c3e:	90 95       	com	r25
 c40:	81 95       	neg	r24
 c42:	9f 4f       	sbci	r25, 0xFF	; 255
 c44:	0c 94 56 06 	jmp	0xcac	; 0xcac <__utoa_common>

00000c48 <__ltoa_ncheck>:
 c48:	bb 27       	eor	r27, r27
 c4a:	2a 30       	cpi	r18, 0x0A	; 10
 c4c:	51 f4       	brne	.+20     	; 0xc62 <__ltoa_ncheck+0x1a>
 c4e:	99 23       	and	r25, r25
 c50:	42 f4       	brpl	.+16     	; 0xc62 <__ltoa_ncheck+0x1a>
 c52:	bd e2       	ldi	r27, 0x2D	; 45
 c54:	90 95       	com	r25
 c56:	80 95       	com	r24
 c58:	70 95       	com	r23
 c5a:	61 95       	neg	r22
 c5c:	7f 4f       	sbci	r23, 0xFF	; 255
 c5e:	8f 4f       	sbci	r24, 0xFF	; 255
 c60:	9f 4f       	sbci	r25, 0xFF	; 255
 c62:	0c 94 34 06 	jmp	0xc68	; 0xc68 <__ultoa_common>

00000c66 <__ultoa_ncheck>:
 c66:	bb 27       	eor	r27, r27

00000c68 <__ultoa_common>:
 c68:	fa 01       	movw	r30, r20
 c6a:	a6 2f       	mov	r26, r22
 c6c:	62 17       	cp	r22, r18
 c6e:	71 05       	cpc	r23, r1
 c70:	81 05       	cpc	r24, r1
 c72:	91 05       	cpc	r25, r1
 c74:	33 0b       	sbc	r19, r19
 c76:	30 fb       	bst	r19, 0
 c78:	66 f0       	brts	.+24     	; 0xc92 <__ultoa_common+0x2a>
 c7a:	aa 27       	eor	r26, r26
 c7c:	66 0f       	add	r22, r22
 c7e:	77 1f       	adc	r23, r23
 c80:	88 1f       	adc	r24, r24
 c82:	99 1f       	adc	r25, r25
 c84:	aa 1f       	adc	r26, r26
 c86:	a2 17       	cp	r26, r18
 c88:	10 f0       	brcs	.+4      	; 0xc8e <__ultoa_common+0x26>
 c8a:	a2 1b       	sub	r26, r18
 c8c:	63 95       	inc	r22
 c8e:	38 50       	subi	r19, 0x08	; 8
 c90:	a9 f7       	brne	.-22     	; 0xc7c <__ultoa_common+0x14>
 c92:	a0 5d       	subi	r26, 0xD0	; 208
 c94:	aa 33       	cpi	r26, 0x3A	; 58
 c96:	08 f0       	brcs	.+2      	; 0xc9a <__ultoa_common+0x32>
 c98:	a9 5d       	subi	r26, 0xD9	; 217
 c9a:	a1 93       	st	Z+, r26
 c9c:	36 f7       	brtc	.-52     	; 0xc6a <__ultoa_common+0x2>
 c9e:	b1 11       	cpse	r27, r1
 ca0:	b1 93       	st	Z+, r27
 ca2:	10 82       	st	Z, r1
 ca4:	ca 01       	movw	r24, r20
 ca6:	0c 94 6f 06 	jmp	0xcde	; 0xcde <strrev>

00000caa <__utoa_ncheck>:
 caa:	bb 27       	eor	r27, r27

00000cac <__utoa_common>:
 cac:	fb 01       	movw	r30, r22
 cae:	55 27       	eor	r21, r21
 cb0:	aa 27       	eor	r26, r26
 cb2:	88 0f       	add	r24, r24
 cb4:	99 1f       	adc	r25, r25
 cb6:	aa 1f       	adc	r26, r26
 cb8:	a4 17       	cp	r26, r20
 cba:	10 f0       	brcs	.+4      	; 0xcc0 <__utoa_common+0x14>
 cbc:	a4 1b       	sub	r26, r20
 cbe:	83 95       	inc	r24
 cc0:	50 51       	subi	r21, 0x10	; 16
 cc2:	b9 f7       	brne	.-18     	; 0xcb2 <__utoa_common+0x6>
 cc4:	a0 5d       	subi	r26, 0xD0	; 208
 cc6:	aa 33       	cpi	r26, 0x3A	; 58
 cc8:	08 f0       	brcs	.+2      	; 0xccc <__utoa_common+0x20>
 cca:	a9 5d       	subi	r26, 0xD9	; 217
 ccc:	a1 93       	st	Z+, r26
 cce:	00 97       	sbiw	r24, 0x00	; 0
 cd0:	79 f7       	brne	.-34     	; 0xcb0 <__utoa_common+0x4>
 cd2:	b1 11       	cpse	r27, r1
 cd4:	b1 93       	st	Z+, r27
 cd6:	11 92       	st	Z+, r1
 cd8:	cb 01       	movw	r24, r22
 cda:	0c 94 6f 06 	jmp	0xcde	; 0xcde <strrev>

00000cde <strrev>:
 cde:	dc 01       	movw	r26, r24
 ce0:	fc 01       	movw	r30, r24
 ce2:	67 2f       	mov	r22, r23
 ce4:	71 91       	ld	r23, Z+
 ce6:	77 23       	and	r23, r23
 ce8:	e1 f7       	brne	.-8      	; 0xce2 <strrev+0x4>
 cea:	32 97       	sbiw	r30, 0x02	; 2
 cec:	04 c0       	rjmp	.+8      	; 0xcf6 <strrev+0x18>
 cee:	7c 91       	ld	r23, X
 cf0:	6d 93       	st	X+, r22
 cf2:	70 83       	st	Z, r23
 cf4:	62 91       	ld	r22, -Z
 cf6:	ae 17       	cp	r26, r30
 cf8:	bf 07       	cpc	r27, r31
 cfa:	c8 f3       	brcs	.-14     	; 0xcee <strrev+0x10>
 cfc:	08 95       	ret

00000cfe <_exit>:
 cfe:	f8 94       	cli

00000d00 <__stop_program>:
 d00:	ff cf       	rjmp	.-2      	; 0xd00 <__stop_program>
